(dp1
S'output'
p2
S"<type 'exceptions.IndexError'> list index out of range"
p3
sS'layer'
p4
S'E:\\projects\\Repos\\speakinquotes\\web2py\\applications\\SpeakInQuotes\\views\\connections/search.html'
p5
sS'code'
p6
S'left_sidebar_enabled,right_sidebar_enabled=True,False\nresponse.write(\'\\r\\n\', escape=False)\nresponse.write(\'<!--[if HTML5]><![endif]-->\\n<!DOCTYPE html>\\n<!-- paulirish.com/2008/conditional-stylesheets-vs-css-hacks-answer-neither/ -->\\n<!--[if lt IE 7]><html class="ie ie6 ie-lte9 ie-lte8 ie-lte7 no-js" lang="\', escape=False)\nresponse.write(T.accepted_language or \'en\')\nresponse.write(\'"> <![endif]-->\\n<!--[if IE 7]><html class="ie ie7 ie-lte9 ie-lte8 ie-lte7 no-js" lang="\', escape=False)\nresponse.write(T.accepted_language or \'en\')\nresponse.write(\'"> <![endif]-->\\n<!--[if IE 8]><html class="ie ie8 ie-lte9 ie-lte8 no-js" lang="\', escape=False)\nresponse.write(T.accepted_language or \'en\')\nresponse.write(\'"> <![endif]-->\\n<!--[if IE 9]><html class="ie9 ie-lte9 no-js" lang="\', escape=False)\nresponse.write(T.accepted_language or \'en\')\nresponse.write(\'"> <![endif]-->\\n<!--[if (gt IE 9)|!(IE)]><!--> <html class="no-js" lang="\', escape=False)\nresponse.write(T.accepted_language or \'en\')\nresponse.write(\'"> <!--<![endif]-->\\n<head>\\n<title>\', escape=False)\nresponse.write(response.title or request.application)\nresponse.write(\'</title>\\n  <!--[if !HTML5]>\\n      <meta http-equiv="X-UA-Compatible" content="IE=edge\', escape=False)\nresponse.write(not request.is_local and \',chrome=1\' or \'\')\nresponse.write(\'">\\n  <![endif]-->\\n  <!-- www.phpied.com/conditional-comments-block-downloads/ -->\\n  <!-- Always force latest IE rendering engine\\n       (even in intranet) & Chrome Frame\\n       Remove this if you use the .htaccess -->\\n   \\n  <meta charset="utf-8" />\\n\\n  <!-- http://dev.w3.org/html5/markup/meta.name.html -->\\n  <meta name="application-name" content="\', escape=False)\nresponse.write(request.application)\nresponse.write(\'" />\\n  \\n <meta name="title" content="Speak In Quotes" />\\n <meta name="description" content="SpeakInQuotes allows you to express your feelings using quotes and connects you with other people who love quotes like you :)!" />\\n \\n  <!-- Speaking of Google, don\\\'t forget to set your site up:\\n       http://google.com/webmasters -->\\n  <meta name="google-site-verification" content="" />\\n\\n  <!--  Mobile Viewport Fix\\n        j.mp/mobileviewport & davidbcalhoun.com/2010/viewport-metatag\\n        device-width: Occupy full width of the screen in its current orientation\\n        initial-scale = 1.0 retains dimensions instead of zooming out if page height > device height\\n        user-scalable = yes allows the user to zoom in -->\\n  <meta name="viewport" content="width=device-width, initial-scale=1.0" />\\n\\n  <link rel="shortcut icon" href="\', escape=False)\nresponse.write(URL(\'static\',\'images/favicon.ico\'))\nresponse.write(\'" type="image/x-icon">\\n  <link rel="apple-touch-icon" href="\', escape=False)\nresponse.write(URL(\'static\',\'images/favicon.png\'))\nresponse.write(\'">\\n\\n  <!-- All JavaScript at the bottom, except for Modernizr which enables\\n       HTML5 elements & feature detects -->\\n  <script src="\', escape=False)\nresponse.write(URL(\'static\',\'js/modernizr.custom.js\'))\nresponse.write(\'"></script>\\n\\n  <!-- include stylesheets -->\\n  \', escape=False)\nresponse.files.append(URL(\'static\',\'css/reveal.css\'))\nresponse.files.append(URL(\'static\',\'css/web2py.css\'))\nresponse.files.append(URL(\'static\',\'css/bootstrap.min.css\'))\nresponse.files.append(URL(\'static\',\'css/bootstrap-responsive.min.css\'))\nresponse.files.append(URL(\'static\',\'css/web2py_bootstrap.css\'))\nresponse.write(\'\\n  \\n  \', escape=False)\nresponse.write(\'<script type="text/javascript"><!--\\n    // These variables are used by the web2py_ajax_init function in web2py_ajax.js (which is loaded below).\\n    var w2p_ajax_confirm_message = "\', escape=False)\nresponse.write(T(\'Are you sure you want to delete this object?\'))\nresponse.write(\'";\\n    var w2p_ajax_date_format = "\', escape=False)\nresponse.write(T(\'%Y-%m-%d\'))\nresponse.write(\'";\\n    var w2p_ajax_datetime_format = "\', escape=False)\nresponse.write(T(\'%Y-%m-%d %H:%M:%S\'))\nresponse.write(\'";\\n    var ajax_error_500 = \\\'\', escape=False)\nresponse.write(XML(T(\'An error occured, please %s the page\') % A(T(\'reload\'), _href=URL(args=request.args, vars=request.get_vars))))\nresponse.write("\'\\n    //--></script>\\n", escape=False)\nresponse.files.insert(0,URL(\'static\',\'js/jquery.js\'))\nresponse.files.insert(1,URL(\'static\',\'css/calendar.css\'))\nresponse.files.insert(2,URL(\'static\',\'js/calendar.js\'))\nresponse.files.insert(3,URL(\'static\',\'js/web2py.js\'))\nresponse.include_meta()\nresponse.include_files()\nresponse.write(\'\\n\', escape=False)\nresponse.write(\'\\n\\n  \', escape=False)\n# using sidebars need to know what sidebar you want to use\nleft_sidebar_enabled = globals().get(\'left_sidebar_enabled\',False)\nright_sidebar_enabled = globals().get(\'right_sidebar_enabled\',False)\nmiddle_columns = {0:\'span12\',1:\'span9\',2:\'span6\'}[\n(left_sidebar_enabled and 1 or 0)+(right_sidebar_enabled and 1 or 0)]\nresponse.write(\'\\n\\n\\n       <link rel="stylesheet" href="https://ajax.googleapis.com/ajax/libs/jqueryui/1.8.16/themes/base/jquery-ui.css" type="text/css" media="all" />\\n       <script src="https://ajax.googleapis.com/ajax/libs/jqueryui/1.8.16/jquery-ui.min.js" type="text/javascript"></script>\\n       \\n       \\n       \\n  <noscript><link href="\', escape=False)\nresponse.write(URL(\'static\', \'css/web2py_bootstrap_nojs.css\'))\nresponse.write(\'" rel="stylesheet" type="text/css" /></noscript>\\n  \', escape=False)\nresponse.write(\'\\n</head>\\n\\n<body>\\n  <!-- Navbar ================================================== -->\\n  <div class="navbar navbar-inverse navbar-fixed-top">\\n    <div class="flash">\', escape=False)\nresponse.write(response.flash or \'\')\nresponse.write(\'</div>\\n    <div class="navbar-inner">\\n      <div class="container">\\n        <!-- the next tag is necessary for bootstrap menus, do not remove -->\\n        <button type="button" class="btn btn-navbar" data-toggle="collapse" data-target=".nav-collapse">\\n          <span class="icon-bar"></span>\\n          <span class="icon-bar"></span>\\n          <span class="icon-bar"></span>\\n        </button>\\n\\t\', escape=False)\nresponse.write(response.logo or \'\')\nresponse.write(\'\\n        <ul id="navbar" class="nav pull-right">\', escape=False)\nresponse.write(\'auth\' in globals() and newnavbar(mode="dropdown") or \'\')\nresponse.write(\'</ul>\\n        <div class="nav-collapse">\\n          \', escape=False)\nis_mobile=request.user_agent().is_mobile\nresponse.write(\'\\n          \\n          \', escape=False)\nif response.menu:\n    response.write(\'\\n          \', escape=False)\n    response.write(MENU(response.menu, _class=\'mobile-menu nav\' if is_mobile else \'nav\',mobile=is_mobile,li_class=\'dropdown\',ul_class=\'dropdown-menu\'))\n    response.write(\'\\n          \', escape=False)\n    pass\nresponse.write(\'\\n        </div><!--/.nav-collapse -->\\n      </div>\\n    </div>\\n  </div><!--/top navbar -->\\n\\n  <div class="container">\\n    <!-- Masthead ================================================== -->\\n    <header class="mastheader row" id="header">\\n      \', escape=False)\nif response.title:\n    response.write(\'\\n        <div class="span12">\\n            <div class="page-header">\\n                <h1>\\n                    \', escape=False)\n    response.write(response.title)\n    response.write(\'\\n                    <small>\', escape=False)\n    response.write(response.subtitle or \'\')\n    response.write(\'</small>\\n                </h1>\\n            </div>\\n        </div>\\n\\t\', escape=False)\n    pass\nresponse.write(\'\\n    </header>\\n\\n    <section id="main" class="main row">\\n        \', escape=False)\nif left_sidebar_enabled:\n    response.write(\'\\n        <div class="span3 left-sidebar">\\n            \', escape=False)\n    response.write(\'\\r\\n<b>\', escape=False)\n    response.write(T(\'Your User Profile\')+" : ")\n    response.write(\'</b>\\r\\n</br>\\r\\n\', escape=False)\n    if auth.user.profile_picture:\n        response.write(\'\\r\\n<img src="\', escape=False)\n        response.write(URL(\'default\',\'download\',args=(auth.user.profile_picture)))\n        response.write(\'" style="width:100px; height:100px;";>\\r\\n\', escape=False)\n    else:\n        response.write(\'\\r\\n<img src="\', escape=False)\n        response.write(URL(\'static\',\'images/question.png\'))\n        response.write(\'" style="width:100px; height:100px;" >\\r\\n\', escape=False)\n        pass\n    response.write(\'\\r\\n</br>\\r\\n</br>\\r\\n<B>\\r\\n\', escape=False)\n    response.write(auth.user.first_name+" "+ auth.user.last_name)\n    response.write(\'\\r\\n</B>\\r\\n</br>\\r\\n<b>\\r\\n\', escape=False)\n    response.write(auth.user.gender)\n    response.write(\'\\r\\n</b>\\r\\n</br>\\r\\n\\r\\n\', escape=False)\n    response.write(\'\\n        </div>\\n        \', escape=False)\n    pass\nresponse.write(\'\\n\\n        <div class="\', escape=False)\nresponse.write(middle_columns)\nresponse.write(\'">\\n            \', escape=False)\nresponse.write(\'\\n            \', escape=False)\nresponse.write(\'\\r\\n\\r\\n\\r\\n<fieldset>\\r\\n\\t<legend>\\r\\n\\tSearch Results for :  \', escape=False)\nresponse.write(request.args[0])\nresponse.write(\'\\r\\n\\t</legend>\\r\\n\\t\', escape=False)\nif Connections:\n    response.write(\'\\r\\n\\t\\r\\n\\t\\t\\t\\r\\n\\t\\t\\t\\t<table style="width:100%;">\\r\\n\\t\\t\\t\\t<tr>\\r\\n\\t\\t\\t\\t\', escape=False)\n    for i in Connections:\n        response.write(\'\\r\\n\\t\\t\\t\\t\\t\\t\\r\\n\\t\\t\\t\\t\\t\\t<td style="width:25%; text-align:center;">\\r\\n\\t\\t\\t\\t\\t\\t\\r\\n\\t\\t\\t\\t\\t\\t\', escape=False)\n        if Connections[i][\'profile_picture\']:\n            response.write(\'\\r\\n\\t\\t\\t\\t\\t\\t<img src="\', escape=False)\n            response.write(URL(\'default\',\'download\',args=(Connections[i][\'profile_picture\'])))\n            response.write(\'" style="width:100px; height:100px;">\\r\\n\\t\\t\\t\\t\\t\\t\', escape=False)\n        else:\n            response.write(\'\\r\\n\\t\\t\\t\\t\\t\\t<img src="\', escape=False)\n            response.write(URL(\'static\',\'images/question.png\'))\n            response.write(\'" style="width:100px; height:100px;" >\\r\\n\\t\\t\\t\\t\\t\\t\', escape=False)\n            pass\n        response.write(\'\\r\\n\\t\\t\\t\\t\\t\\t</br>\\r\\n\\t\\t\\t\\t\\t\\t\', escape=False)\n        response.write(A(name_of(Connections[i][\'id\']),_href=URL(request.application ,\'profile\',\'index\',args=[Connections[i][\'id\']],extension=False),))\n        response.write(\'\\r\\n\\t\\t\\t\\t\\t\\t</td>\\r\\n\\t\\t\\t\\t\', escape=False)\n        pass\n    response.write(\'\\r\\n\\t\\t\\t\\t\\r\\n\\t\\t\\t\\t\\r\\n\\t\\t\\t\\t</table>\\r\\n\\t\', escape=False)\n    pass\nresponse.write(\'\\r\\n</fieldset>\\r\\n \\r\\n\\r\\n\\r\\n\\r\\n\\r\\n\\r\\n\', escape=False)\nresponse.write(\'\\r\\n\', escape=False)\nresponse.write(\'\\n            \', escape=False)\nresponse.write(\'\\n        </div>\\n\\n        \', escape=False)\nif right_sidebar_enabled:\n    response.write(\'\\n        <div class="span3">\\n            \', escape=False)\n    response.write(\'\\n            <h3>Right Sidebar</h3>\\n            <p></p>\\n            \', escape=False)\n    response.write(\'\\n        </div>\\n        \', escape=False)\n    pass\nresponse.write(\'\\n    </section><!--/main-->\\n\\n    <!-- Footer ================================================== -->\\n    <div class="row">\\n        <footer class="footer span12" id="footer">\\n            <div class="footer-content">\\n                \', escape=False)\nresponse.write(\' <!-- this is default footer -->\\n                <div class="copyright pull-left">\', escape=False)\nresponse.write(T(\'Copyright\'))\nresponse.write(\' &#169; \', escape=False)\nresponse.write(request.now.year)\nresponse.write(\'</div>\\n                <div id="poweredBy" class="pull-right">\\n                    \', escape=False)\nresponse.write(T(\'All Rightes Reserved\'))\nresponse.write(\'\\n                    <a href="http://www.cmpsamurai.com/">Moustafa Mahmoud (cmpsamurai)</a>\\n                </div>\\n                \', escape=False)\nresponse.write(\'\\n            </div>\\n        </footer>\\n    </div>\\n\\n  </div> <!-- /container -->\\n\\n  <!-- The javascript =============================================\\n       (Placed at the end of the document so the pages load faster) -->\\n  <script src="\', escape=False)\nresponse.write(URL(\'static\',\'js/bootstrap.min.js\'))\nresponse.write(\'"></script>\\n  <script src="\', escape=False)\nresponse.write(URL(\'static\',\'js/web2py_bootstrap.js\'))\nresponse.write(\'"></script>\\n  \\n   <script src="\', escape=False)\nresponse.write(URL(\'static\',\'js/jquery.reveal.js\'))\nresponse.write(\'"></script>\\n   \\n  <!--[if lt IE 7 ]>\\n      <script src="\', escape=False)\nresponse.write(URL(\'static\',\'js/dd_belatedpng.js\'))\nresponse.write(\'"></script>\\n      <script> DD_belatedPNG.fix(\\\'img, .png_bg\\\'); //fix any <img> or .png_bg background-images </script>\\n      <![endif]-->\\n  \\n  \', escape=False)\nif response.google_analytics_id:\n    response.write(\'\\n  <script src="\', escape=False)\n    response.write(URL(\'static\',\'js/analytics.min.js\'))\n    response.write(\'"></script>\\n  <script type="text/javascript">\\n  analytics.initialize({\\n    \\\'Google Analytics\\\':{trackingId:\\\'\', escape=False)\n    response.write(response.google_analytics_id)\n    response.write("\'} \\n  });</script>\\n  ", escape=False)\n    pass\nresponse.write(\'\\n  <script src="\', escape=False)\nresponse.write(URL(\'static\',\'js/share.js\',vars=dict(static=URL(\'static\',\'images\'))))\nresponse.write(\'"></script>\\n</body>\\n</html>\\n\\n\', escape=False)'
p7
sS'snapshot'
p8
(dp9
S'exception'
p10
(dp11
S'__hash__'
p12
S"<method-wrapper '__hash__' of exceptions.IndexError object>"
p13
sS'__setattr__'
p14
S"<method-wrapper '__setattr__' of exceptions.IndexError object>"
p15
sS'__reduce_ex__'
p16
S'<built-in method __reduce_ex__ of exceptions.IndexError object>'
p17
sS'__getslice__'
p18
S"<method-wrapper '__getslice__' of exceptions.IndexError object>"
p19
sS'__getitem__'
p20
S"<method-wrapper '__getitem__' of exceptions.IndexError object>"
p21
sS'__setstate__'
p22
S'<built-in method __setstate__ of exceptions.IndexError object>'
p23
sS'__reduce__'
p24
S'<built-in method __reduce__ of exceptions.IndexError object>'
p25
sS'__str__'
p26
S"<method-wrapper '__str__' of exceptions.IndexError object>"
p27
sS'__format__'
p28
S'<built-in method __format__ of exceptions.IndexError object>'
p29
sS'__getattribute__'
p30
S"<method-wrapper '__getattribute__' of exceptions.IndexError object>"
p31
sS'__class__'
p32
S"<type 'exceptions.IndexError'>"
p33
sS'__unicode__'
p34
S'<built-in method __unicode__ of exceptions.IndexError object>'
p35
sS'__delattr__'
p36
S"<method-wrapper '__delattr__' of exceptions.IndexError object>"
p37
sS'__subclasshook__'
p38
S'<built-in method __subclasshook__ of type object>'
p39
sS'__repr__'
p40
S"<method-wrapper '__repr__' of exceptions.IndexError object>"
p41
sS'args'
p42
S"('list index out of range',)"
p43
sS'__dict__'
p44
S'{}'
p45
sS'__sizeof__'
p46
S'<built-in method __sizeof__ of exceptions.IndexError object>'
p47
sS'__doc__'
p48
S"'Sequence index out of range.'"
p49
sS'__init__'
p50
S"<method-wrapper '__init__' of exceptions.IndexError object>"
p51
sS'__new__'
p52
S'<built-in method __new__ of type object>'
p53
ssS'evalue'
p54
S'list index out of range'
p55
sS'request'
p56
cgluon.html
XML_unpickle
p57
(S's~R\x00\x00<div><table><tr><td style="font-weight:bold;vertical-align:top">ajax</td><td valign="top">:</td><td><div>False</div></td></tr><tr><td style="font-weight:bold;vertical-align:top">application</td><td valign="top">:</td><td><div>SpeakInQuotes</div></td></tr><tr><td style="font-weight:bold;vertical-align:top">args</td><td valign="top">:</td><td><div><table></table></div></td></tr><tr><td style="font-weight:bold;vertical-align:top">body</td><td valign="top">:</td><td><div>&lt;cStringIO.StringO object at 0x06D04140&gt;</div></td></tr><tr><td style="font-weight:bold;vertical-align:top">cid</td><td valign="top">:</td><td><div>None</div></td></tr><tr><td style="font-weight:bold;vertical-align:top">client</td><td valign="top">:</td><td><div>127.0.0.1</div></td></tr><tr><td style="font-weight:bold;vertical-align:top">controller</td><td valign="top">:</td><td><div>connections</div></td></tr><tr><td style="font-weight:bold;vertical-align:top">cookies</td><td valign="top">:</td><td><div><table><tr><td style="font-weight:bold;vertical-align:top">session_id_admin</td><td valign="top">:</td><td><div>127.0.0.1-d83be33e-83ee-4344-b2fd-11c044f9de6c<table><tr><td style="font-weight:bold;vertical-align:top">comment</td><td valign="top">:</td><td><div></div></td></tr><tr><td style="font-weight:bold;vertical-align:top">domain</td><td valign="top">:</td><td><div></div></td></tr><tr><td style="font-weight:bold;vertical-align:top">expires</td><td valign="top">:</td><td><div></div></td></tr><tr><td style="font-weight:bold;vertical-align:top">httponly</td><td valign="top">:</td><td><div></div></td></tr><tr><td style="font-weight:bold;vertical-align:top">max-age</td><td valign="top">:</td><td><div></div></td></tr><tr><td style="font-weight:bold;vertical-align:top">path</td><td valign="top">:</td><td><div></div></td></tr><tr><td style="font-weight:bold;vertical-align:top">secure</td><td valign="top">:</td><td><div></div></td></tr><tr><td style="font-weight:bold;vertical-align:top">version</td><td valign="top">:</td><td><div></div></td></tr></table></div></td></tr><tr><td style="font-weight:bold;vertical-align:top">session_id_speakinquotes</td><td valign="top">:</td><td><div>127.0.0.1-af4a0ad5-6754-44d9-9ca8-6e25140866e5<table><tr><td style="font-weight:bold;vertical-align:top">comment</td><td valign="top">:</td><td><div></div></td></tr><tr><td style="font-weight:bold;vertical-align:top">domain</td><td valign="top">:</td><td><div></div></td></tr><tr><td style="font-weight:bold;vertical-align:top">expires</td><td valign="top">:</td><td><div></div></td></tr><tr><td style="font-weight:bold;vertical-align:top">httponly</td><td valign="top">:</td><td><div></div></td></tr><tr><td style="font-weight:bold;vertical-align:top">max-age</td><td valign="top">:</td><td><div></div></td></tr><tr><td style="font-weight:bold;vertical-align:top">path</td><td valign="top">:</td><td><div></div></td></tr><tr><td style="font-weight:bold;vertical-align:top">secure</td><td valign="top">:</td><td><div></div></td></tr><tr><td style="font-weight:bold;vertical-align:top">version</td><td valign="top">:</td><td><div></div></td></tr></table></div></td></tr></table></div></td></tr><tr><td style="font-weight:bold;vertical-align:top">env</td><td valign="top">:</td><td><div><table><tr><td style="font-weight:bold;vertical-align:top">app_folders</td><td valign="top">:</td><td><div>set([&#x27;E:\\\\projects\\\\Repos\\\\speakinquotes\\\\web2py\\\\applications\\\\SpeakInQuotes\\\\&#x27;, &#x27;E:\\\\projects\\\\Repos\\\\speakinquotes\\\\web2py\\\\applications\\\\admin\\\\&#x27;])</div></td></tr><tr><td style="font-weight:bold;vertical-align:top">applications_parent</td><td valign="top">:</td><td><div>E:\\projects\\Repos\\speakinquotes\\web2py</div></td></tr><tr><td style="font-weight:bold;vertical-align:top">cmd_args</td><td valign="top">:</td><td><div><table></table></div></td></tr><tr><td style="font-weight:bold;vertical-align:top">cmd_options</td><td valign="top">:</td><td><div>&lt;Values at 0x2879418: {&#x27;verbose&#x27;: False, &#x27;ip&#x27;: &#x27;127.0.0.1&#x27;, &#x27;with_scheduler&#x27;: False, &#x27;ips&#x27;: [], &#x27;shutdown_timeout&#x27;: 5, &#x27;taskbar&#x27;: False, &#x27;with_coverage&#x27;: False, &#x27;port&#x27;: 8000, &#x27;maxthreads&#x27;: None, &#x27;softcron&#x27;: False, &#x27;server_name&#x27;: &#x27;Laptop&#x27;, &#x27;bpython&#x27;: False, &#x27;nogui&#x27;: False, &#x27;pid_filename&#x27;: &#x27;httpserver.pid&#x27;, &#x27;extcron&#x27;: False, &#x27;runcron&#x27;: False, &#x27;run_system_tests&#x27;: False, &#x27;test&#x27;: None, &#x27;folder&#x27;: &#x27;E:\\\\projects\\\\Repos\\\\speakinquotes\\\\web2py&#x27;, &#x27;config&#x27;: &#x27;&#x27;, &#x27;import_models&#x27;: False, &#x27;winservice&#x27;: &#x27;&#x27;, &#x27;shell&#x27;: None, &#x27;run&#x27;: &#x27;&#x27;, &#x27;log_filename&#x27;: &#x27;httpserver.log&#x27;, &#x27;debuglevel&#x27;: 30, &#x27;args&#x27;: [&#x27;&#x27;], &#x27;socket_timeout&#x27;: 5, &#x27;ssl_ca_certificate&#x27;: None, &#x27;scheduler&#x27;: None, &#x27;profiler_filename&#x27;: None, &#x27;ssl_private_key&#x27;: &#x27;&#x27;, &#x27;scheduler_groups&#x27;: None, &#x27;password&#x27;: &#x27;&lt;ask&gt;&#x27;, &#x27;request_queue_size&#x27;: 5, &#x27;ssl_certificate&#x27;: &#x27;&#x27;, &#x27;cronjob&#x27;: False, &#x27;numthreads&#x27;: None, &#x27;quiet&#x27;: False, &#x27;interfaces&#x27;: None, &#x27;minthreads&#x27;: None, &#x27;timeout&#x27;: 10, &#x27;plain&#x27;: False, &#x27;nobanner&#x27;: False}&gt;</div></td></tr><tr><td style="font-weight:bold;vertical-align:top">db_sessions</td><td valign="top">:</td><td><div>set([])</div></td></tr><tr><td style="font-weight:bold;vertical-align:top">debugging</td><td valign="top">:</td><td><div>False</div></td></tr><tr><td style="font-weight:bold;vertical-align:top">gluon_parent</td><td valign="top">:</td><td><div>E:\\projects\\Repos\\speakinquotes\\web2py</div></td></tr><tr><td style="font-weight:bold;vertical-align:top">http_accept</td><td valign="top">:</td><td><div>text/html,application/xhtml+xml,application/xml;q=0.9,*/*;q=0.8</div></td></tr><tr><td style="font-weight:bold;vertical-align:top">http_accept_encoding</td><td valign="top">:</td><td><div>gzip,deflate,sdch</div></td></tr><tr><td style="font-weight:bold;vertical-align:top">http_accept_language</td><td valign="top">:</td><td><div>en-US,en;q=0.8</div></td></tr><tr><td style="font-weight:bold;vertical-align:top">http_cache_control</td><td valign="top">:</td><td><div>max-age=0</div></td></tr><tr><td style="font-weight:bold;vertical-align:top">http_connection</td><td valign="top">:</td><td><div>keep-alive</div></td></tr><tr><td style="font-weight:bold;vertical-align:top">http_cookie</td><td valign="top">:</td><td><div>session_id_speakinquotes=127.0.0.1-af4a0ad5-6754-44d9-9ca8-6e25140866e5; session_id_admin=127.0.0.1-d83be33e-83ee-4344-b2fd-11c044f9de6c</div></td></tr><tr><td style="font-weight:bold;vertical-align:top">http_host</td><td valign="top">:</td><td><div>127.0.0.1:8000</div></td></tr><tr><td style="font-weight:bold;vertical-align:top">http_user_agent</td><td valign="top">:</td><td><div>Mozilla/5.0 (Windows NT 6.2) AppleWebKit/537.36 (KHTML, like Gecko) Chrome/27.0.1453.110 Safari/537.36</div></td></tr><tr><td style="font-weight:bold;vertical-align:top">is_jython</td><td valign="top">:</td><td><div>False</div></td></tr><tr><td style="font-weight:bold;vertical-align:top">is_pypy</td><td valign="top">:</td><td><div>False</div></td></tr><tr><td style="font-weight:bold;vertical-align:top">local_hosts</td><td valign="top">:</td><td><div><table><tr><td><div>Laptop</div></td></tr><tr><td><div>::ffff:127.0.0.1</div></td></tr><tr><td><div>::1</div></td></tr><tr><td><div>fe80::cfa:261f:3adf:5853%13</div></td></tr><tr><td><div>192.168.1.2</div></td></tr><tr><td><div>2001:0:5ef5:79fd:cfa:261f:3adf:5853</div></td></tr><tr><td><div>Laptop.localdomain</div></td></tr><tr><td><div>fe80::6dea:134e:e68d:1aab%21</div></td></tr><tr><td><div>127.0.0.1</div></td></tr></table></div></td></tr><tr><td style="font-weight:bold;vertical-align:top">path_info</td><td valign="top">:</td><td><div>/SpeakInQuotes/connections/search/</div></td></tr><tr><td style="font-weight:bold;vertical-align:top">query_string</td><td valign="top">:</td><td><div></div></td></tr><tr><td style="font-weight:bold;vertical-align:top">remote_addr</td><td valign="top">:</td><td><div>127.0.0.1</div></td></tr><tr><td style="font-weight:bold;vertical-align:top">remote_port</td><td valign="top">:</td><td><div>60635</div></td></tr><tr><td style="font-weight:bold;vertical-align:top">request_method</td><td valign="top">:</td><td><div>GET</div></td></tr><tr><td style="font-weight:bold;vertical-align:top">request_uri</td><td valign="top">:</td><td><div>/SpeakInQuotes/connections/search/</div></td></tr><tr><td style="font-weight:bold;vertical-align:top">script_name</td><td valign="top">:</td><td><div></div></td></tr><tr><td style="font-weight:bold;vertical-align:top">server_name</td><td valign="top">:</td><td><div>Laptop</div></td></tr><tr><td style="font-weight:bold;vertical-align:top">server_port</td><td valign="top">:</td><td><div>8000</div></td></tr><tr><td style="font-weight:bold;vertical-align:top">server_protocol</td><td valign="top">:</td><td><div>HTTP/1.1</div></td></tr><tr><td style="font-weight:bold;vertical-align:top">server_software</td><td valign="top">:</td><td><div>Rocket 1.2.6</div></td></tr><tr><td style="font-weight:bold;vertical-align:top">web2py_original_uri</td><td valign="top">:</td><td><div>/SpeakInQuotes/connections/search/</div></td></tr><tr><td style="font-weight:bold;vertical-align:top">web2py_path</td><td valign="top">:</td><td><div>E:\\projects\\Repos\\speakinquotes\\web2py</div></td></tr><tr><td style="font-weight:bold;vertical-align:top">web2py_version</td><td valign="top">:</td><td><div>2.4.7-stable+timestamp.2013.05.24.17.48.47</div></td></tr><tr><td style="font-weight:bold;vertical-align:top">wsgi_errors</td><td valign="top">:</td><td><div>&lt;open file &#x27;&lt;stderr&gt;&#x27;, mode &#x27;w&#x27; at 0x012C50D0&gt;</div></td></tr><tr><td style="font-weight:bold;vertical-align:top">wsgi_file_wrapper</td><td valign="top">:</td><td><div>&lt;class wsgiref.util.FileWrapper at 0x02833730&gt;</div></td></tr><tr><td style="font-weight:bold;vertical-align:top">wsgi_input</td><td valign="top">:</td><td><div>&lt;socket._fileobject object at 0x0692B670&gt;</div></td></tr><tr><td style="font-weight:bold;vertical-align:top">wsgi_multiprocess</td><td valign="top">:</td><td><div>False</div></td></tr><tr><td style="font-weight:bold;vertical-align:top">wsgi_multithread</td><td valign="top">:</td><td><div>True</div></td></tr><tr><td style="font-weight:bold;vertical-align:top">wsgi_run_once</td><td valign="top">:</td><td><div>False</div></td></tr><tr><td style="font-weight:bold;vertical-align:top">wsgi_url_scheme</td><td valign="top">:</td><td><div>http</div></td></tr><tr><td style="font-weight:bold;vertical-align:top">wsgi_version</td><td valign="top">:</td><td><div><table><tr><td><div>1</div></td></tr><tr><td><div>0</div></td></tr></table></div></td></tr></table></div></td></tr><tr><td style="font-weight:bold;vertical-align:top">extension</td><td valign="top">:</td><td><div>html</div></td></tr><tr><td style="font-weight:bold;vertical-align:top">folder</td><td valign="top">:</td><td><div>E:\\projects\\Repos\\speakinquotes\\web2py\\applications\\SpeakInQuotes\\</div></td></tr><tr><td style="font-weight:bold;vertical-align:top">function</td><td valign="top">:</td><td><div>search</div></td></tr><tr><td style="font-weight:bold;vertical-align:top">get_vars</td><td valign="top">:</td><td><div><table></table></div></td></tr><tr><td style="font-weight:bold;vertical-align:top">global_settings</td><td valign="top">:</td><td><div><table><tr><td style="font-weight:bold;vertical-align:top">app_folders</td><td valign="top">:</td><td><div>set([&#x27;E:\\\\projects\\\\Repos\\\\speakinquotes\\\\web2py\\\\applications\\\\SpeakInQuotes\\\\&#x27;, &#x27;E:\\\\projects\\\\Repos\\\\speakinquotes\\\\web2py\\\\applications\\\\admin\\\\&#x27;])</div></td></tr><tr><td style="font-weight:bold;vertical-align:top">applications_parent</td><td valign="top">:</td><td><div>E:\\projects\\Repos\\speakinquotes\\web2py</div></td></tr><tr><td style="font-weight:bold;vertical-align:top">cmd_args</td><td valign="top">:</td><td><div><table></table></div></td></tr><tr><td style="font-weight:bold;vertical-align:top">cmd_options</td><td valign="top">:</td><td><div>&lt;Values at 0x2879418: {&#x27;verbose&#x27;: False, &#x27;ip&#x27;: &#x27;127.0.0.1&#x27;, &#x27;with_scheduler&#x27;: False, &#x27;ips&#x27;: [], &#x27;shutdown_timeout&#x27;: 5, &#x27;taskbar&#x27;: False, &#x27;with_coverage&#x27;: False, &#x27;port&#x27;: 8000, &#x27;maxthreads&#x27;: None, &#x27;softcron&#x27;: False, &#x27;server_name&#x27;: &#x27;Laptop&#x27;, &#x27;bpython&#x27;: False, &#x27;nogui&#x27;: False, &#x27;pid_filename&#x27;: &#x27;httpserver.pid&#x27;, &#x27;extcron&#x27;: False, &#x27;runcron&#x27;: False, &#x27;run_system_tests&#x27;: False, &#x27;test&#x27;: None, &#x27;folder&#x27;: &#x27;E:\\\\projects\\\\Repos\\\\speakinquotes\\\\web2py&#x27;, &#x27;config&#x27;: &#x27;&#x27;, &#x27;import_models&#x27;: False, &#x27;winservice&#x27;: &#x27;&#x27;, &#x27;shell&#x27;: None, &#x27;run&#x27;: &#x27;&#x27;, &#x27;log_filename&#x27;: &#x27;httpserver.log&#x27;, &#x27;debuglevel&#x27;: 30, &#x27;args&#x27;: [&#x27;&#x27;], &#x27;socket_timeout&#x27;: 5, &#x27;ssl_ca_certificate&#x27;: None, &#x27;scheduler&#x27;: None, &#x27;profiler_filename&#x27;: None, &#x27;ssl_private_key&#x27;: &#x27;&#x27;, &#x27;scheduler_groups&#x27;: None, &#x27;password&#x27;: &#x27;&lt;ask&gt;&#x27;, &#x27;request_queue_size&#x27;: 5, &#x27;ssl_certificate&#x27;: &#x27;&#x27;, &#x27;cronjob&#x27;: False, &#x27;numthreads&#x27;: None, &#x27;quiet&#x27;: False, &#x27;interfaces&#x27;: None, &#x27;minthreads&#x27;: None, &#x27;timeout&#x27;: 10, &#x27;plain&#x27;: False, &#x27;nobanner&#x27;: False}&gt;</div></td></tr><tr><td style="font-weight:bold;vertical-align:top">db_sessions</td><td valign="top">:</td><td><div>set([])</div></td></tr><tr><td style="font-weight:bold;vertical-align:top">debugging</td><td valign="top">:</td><td><div>False</div></td></tr><tr><td style="font-weight:bold;vertical-align:top">gluon_parent</td><td valign="top">:</td><td><div>E:\\projects\\Repos\\speakinquotes\\web2py</div></td></tr><tr><td style="font-weight:bold;vertical-align:top">is_jython</td><td valign="top">:</td><td><div>False</div></td></tr><tr><td style="font-weight:bold;vertical-align:top">is_pypy</td><td valign="top">:</td><td><div>False</div></td></tr><tr><td style="font-weight:bold;vertical-align:top">local_hosts</td><td valign="top">:</td><td><div><table><tr><td><div>Laptop</div></td></tr><tr><td><div>::ffff:127.0.0.1</div></td></tr><tr><td><div>::1</div></td></tr><tr><td><div>fe80::cfa:261f:3adf:5853%13</div></td></tr><tr><td><div>192.168.1.2</div></td></tr><tr><td><div>2001:0:5ef5:79fd:cfa:261f:3adf:5853</div></td></tr><tr><td><div>Laptop.localdomain</div></td></tr><tr><td><div>fe80::6dea:134e:e68d:1aab%21</div></td></tr><tr><td><div>127.0.0.1</div></td></tr></table></div></td></tr><tr><td style="font-weight:bold;vertical-align:top">web2py_version</td><td valign="top">:</td><td><div>2.4.7-stable+timestamp.2013.05.24.17.48.47</div></td></tr></table></div></td></tr><tr><td style="font-weight:bold;vertical-align:top">is_https</td><td valign="top">:</td><td><div>False</div></td></tr><tr><td style="font-weight:bold;vertical-align:top">is_local</td><td valign="top">:</td><td><div>True</div></td></tr><tr><td style="font-weight:bold;vertical-align:top">is_restful</td><td valign="top">:</td><td><div>False</div></td></tr><tr><td style="font-weight:bold;vertical-align:top">now</td><td valign="top">:</td><td><div>datetime.datetime(2013, 6, 11, 20, 42, 12, 966000)</div></td></tr><tr><td style="font-weight:bold;vertical-align:top">post_vars</td><td valign="top">:</td><td><div><table></table></div></td></tr><tr><td style="font-weight:bold;vertical-align:top">raw_args</td><td valign="top">:</td><td><div></div></td></tr><tr><td style="font-weight:bold;vertical-align:top">raw_extension</td><td valign="top">:</td><td><div>None</div></td></tr><tr><td style="font-weight:bold;vertical-align:top">url</td><td valign="top">:</td><td><div>/SpeakInQuotes/connections/search/</div></td></tr><tr><td style="font-weight:bold;vertical-align:top">utcnow</td><td valign="top">:</td><td><div>datetime.datetime(2013, 6, 11, 18, 42, 12, 966000)</div></td></tr><tr><td style="font-weight:bold;vertical-align:top">uuid</td><td valign="top">:</td><td><div>SpeakInQuotes/127.0.0.1.2013-06-11.20-42-12.dfed13bf-06df-45e8-8364-c4d630245413</div></td></tr><tr><td style="font-weight:bold;vertical-align:top">vars</td><td valign="top">:</td><td><div><table></table></div></td></tr><tr><td style="font-weight:bold;vertical-align:top">wsgi</td><td valign="top">:</td><td><div><table><tr><td style="font-weight:bold;vertical-align:top">environ</td><td valign="top">:</td><td><div><table><tr><td style="font-weight:bold;vertical-align:top">HTTP_ACCEPT</td><td valign="top">:</td><td><div>text/html,application/xhtml+xml,application/xml;q=0.9,*/*;q=0.8</div></td></tr><tr><td style="font-weight:bold;vertical-align:top">HTTP_ACCEPT_ENCODING</td><td valign="top">:</td><td><div>gzip,deflate,sdch</div></td></tr><tr><td style="font-weight:bold;vertical-align:top">HTTP_ACCEPT_LANGUAGE</td><td valign="top">:</td><td><div>en-US,en;q=0.8</div></td></tr><tr><td style="font-weight:bold;vertical-align:top">HTTP_CACHE_CONTROL</td><td valign="top">:</td><td><div>max-age=0</div></td></tr><tr><td style="font-weight:bold;vertical-align:top">HTTP_CONNECTION</td><td valign="top">:</td><td><div>keep-alive</div></td></tr><tr><td style="font-weight:bold;vertical-align:top">HTTP_COOKIE</td><td valign="top">:</td><td><div>session_id_speakinquotes=127.0.0.1-af4a0ad5-6754-44d9-9ca8-6e25140866e5; session_id_admin=127.0.0.1-d83be33e-83ee-4344-b2fd-11c044f9de6c</div></td></tr><tr><td style="font-weight:bold;vertical-align:top">HTTP_HOST</td><td valign="top">:</td><td><div>127.0.0.1:8000</div></td></tr><tr><td style="font-weight:bold;vertical-align:top">HTTP_USER_AGENT</td><td valign="top">:</td><td><div>Mozilla/5.0 (Windows NT 6.2) AppleWebKit/537.36 (KHTML, like Gecko) Chrome/27.0.1453.110 Safari/537.36</div></td></tr><tr><td style="font-weight:bold;vertical-align:top">PATH_INFO</td><td valign="top">:</td><td><div>/SpeakInQuotes/connections/search/</div></td></tr><tr><td style="font-weight:bold;vertical-align:top">QUERY_STRING</td><td valign="top">:</td><td><div></div></td></tr><tr><td style="font-weight:bold;vertical-align:top">REMOTE_ADDR</td><td valign="top">:</td><td><div>127.0.0.1</div></td></tr><tr><td style="font-weight:bold;vertical-align:top">REMOTE_PORT</td><td valign="top">:</td><td><div>60635</div></td></tr><tr><td style="font-weight:bold;vertical-align:top">REQUEST_METHOD</td><td valign="top">:</td><td><div>GET</div></td></tr><tr><td style="font-weight:bold;vertical-align:top">REQUEST_URI</td><td valign="top">:</td><td><div>/SpeakInQuotes/connections/search/</div></td></tr><tr><td style="font-weight:bold;vertical-align:top">SCRIPT_NAME</td><td valign="top">:</td><td><div></div></td></tr><tr><td style="font-weight:bold;vertical-align:top">SERVER_NAME</td><td valign="top">:</td><td><div>Laptop</div></td></tr><tr><td style="font-weight:bold;vertical-align:top">SERVER_PORT</td><td valign="top">:</td><td><div>8000</div></td></tr><tr><td style="font-weight:bold;vertical-align:top">SERVER_PROTOCOL</td><td valign="top">:</td><td><div>HTTP/1.1</div></td></tr><tr><td style="font-weight:bold;vertical-align:top">SERVER_SOFTWARE</td><td valign="top">:</td><td><div>Rocket 1.2.6</div></td></tr><tr><td style="font-weight:bold;vertical-align:top">WEB2PY_ORIGINAL_URI</td><td valign="top">:</td><td><div>/SpeakInQuotes/connections/search/</div></td></tr><tr><td style="font-weight:bold;vertical-align:top">wsgi.errors</td><td valign="top">:</td><td><div>&lt;open file &#x27;&lt;stderr&gt;&#x27;, mode &#x27;w&#x27; at 0x012C50D0&gt;</div></td></tr><tr><td style="font-weight:bold;vertical-align:top">wsgi.file_wrapper</td><td valign="top">:</td><td><div>&lt;class wsgiref.util.FileWrapper at 0x02833730&gt;</div></td></tr><tr><td style="font-weight:bold;vertical-align:top">wsgi.input</td><td valign="top">:</td><td><div>&lt;cStringIO.StringO object at 0x06D04140&gt;</div></td></tr><tr><td style="font-weight:bold;vertical-align:top">wsgi.multiprocess</td><td valign="top">:</td><td><div>False</div></td></tr><tr><td style="font-weight:bold;vertical-align:top">wsgi.multithread</td><td valign="top">:</td><td><div>True</div></td></tr><tr><td style="font-weight:bold;vertical-align:top">wsgi.run_once</td><td valign="top">:</td><td><div>False</div></td></tr><tr><td style="font-weight:bold;vertical-align:top">wsgi.url_scheme</td><td valign="top">:</td><td><div>http</div></td></tr><tr><td style="font-weight:bold;vertical-align:top">wsgi.version</td><td valign="top">:</td><td><div>1</div></td></tr></table></div></td></tr></table></div></td></tr></table></div>'
tRp58
sS'frames'
p59
(lp60
(dp61
S'file'
p62
S'E:\\projects\\Repos\\speakinquotes\\web2py\\gluon\\restricted.py'
p63
sS'dump'
p64
(dp65
S'environment'
p66
S"{'A': <class 'gluon.html.A'>, 'ANY_OF': <class 'gluon.validators.ANY_OF'>, 'Auth': <class 'gluon.tools.Auth'>, 'B': <class 'gluon.html.B'>, 'BEAUTIFY': <class 'gluon.html.BEAUTIFY'>, 'BODY': <class 'gluon.html.BODY'>, 'BR': <class 'gluon.html.BR'>, 'BUTTON': <class 'gluon.html.BUTTON'>, 'CAT': <class 'gluon.html.CAT'>, 'CENTER': <class 'gluon.html.CENTER'>, ...}"
p67
sS'ccode'
p68
S'<code object <module> at 06F442F0, file "E:\\proj...kInQuotes\\views\\connections/search.html", line 1>'
p69
ssS'lnum'
p70
I212
sS'lines'
p71
(dp72
I207
S'    try:'
p73
sI208
S'        if isinstance(code, types.CodeType):'
p74
sI209
S'            ccode = code'
p75
sI210
S'        else:'
p76
sI211
S'            ccode = compile2(code, layer)'
p77
sI212
S'        exec ccode in environment'
p78
sI213
S'    except HTTP:'
p79
sI214
S'        raise'
p80
sI215
S'    except RestrictedError:'
p81
sI216
S'        # do not encapsulate (obfuscate) the original RestrictedError'
p82
ssS'call'
p83
S'(code=\'left_sidebar_enabled,right_sidebar_enabled=True,..."></script>\\\\n</body>\\\\n</html>\\\\n\\\\n\\\', escape=False)\', environment={\'A\': <class \'gluon.html.A\'>, \'ANY_OF\': <class \'gluon.validators.ANY_OF\'>, \'Auth\': <class \'gluon.tools.Auth\'>, \'B\': <class \'gluon.html.B\'>, \'BEAUTIFY\': <class \'gluon.html.BEAUTIFY\'>, \'BODY\': <class \'gluon.html.BODY\'>, \'BR\': <class \'gluon.html.BR\'>, \'BUTTON\': <class \'gluon.html.BUTTON\'>, \'CAT\': <class \'gluon.html.CAT\'>, \'CENTER\': <class \'gluon.html.CENTER\'>, ...}, layer=r\'E:\\projects\\Repos\\speakinquotes\\web2py\\applications\\SpeakInQuotes\\views\\connections/search.html\')'
p84
sS'func'
p85
S'restricted'
p86
sa(dp87
g62
S'E:\\projects\\Repos\\speakinquotes\\web2py\\applications\\SpeakInQuotes\\views\\connections\\search.html'
p88
sg64
(dp89
sg70
I106
sg71
(dp90
I97
S'    response.write(auth.user.gender)'
p91
sI98
S"    response.write('\\r\\n</b>\\r\\n</br>\\r\\n\\r\\n', escape=False)"
p92
sI99
S"    response.write('\\n        </div>\\n        ', escape=False)"
p93
sI100
S'    pass'
p94
sI101
S'response.write(\'\\n\\n        <div class="\', escape=False)'
p95
sI102
S'response.write(middle_columns)'
p96
sI103
S'response.write(\'">\\n            \', escape=False)'
p97
sI104
S"response.write('\\n            ', escape=False)"
p98
sI105
S"response.write('\\r\\n\\r\\n\\r\\n<fieldset>\\r\\n\\t<legend>\\r\\n\\tSearch Results for :  ', escape=False)"
p99
sI106
S'response.write(request.args[0])'
p100
sI107
S"response.write('\\r\\n\\t</legend>\\r\\n\\t', escape=False)"
p101
sI108
S'if Connections:'
p102
sI109
S'    response.write(\'\\r\\n\\t\\r\\n\\t\\t\\t\\r\\n\\t\\t\\t\\t<table style="width:100%;">\\r\\n\\t\\t\\t\\t<tr>\\r\\n\\t\\t\\t\\t\', escape=False)'
p103
sI110
S'    for i in Connections:'
p104
sI111
S'        response.write(\'\\r\\n\\t\\t\\t\\t\\t\\t\\r\\n\\t\\t\\t\\t\\t\\t<td style="width:25%; text-align:center;">\\r\\n\\t\\t\\t\\t\\t\\t\\r\\n\\t\\t\\t\\t\\t\\t\', escape=False)'
p105
sI112
S"        if Connections[i]['profile_picture']:"
p106
sI113
S'            response.write(\'\\r\\n\\t\\t\\t\\t\\t\\t<img src="\', escape=False)'
p107
sI114
S"            response.write(URL('default','download',args=(Connections[i]['profile_picture'])))"
p108
sI115
S'            response.write(\'" style="width:100px; height:100px;">\\r\\n\\t\\t\\t\\t\\t\\t\', escape=False)'
p109
sI116
S'        else:'
p110
ssg83
S'()'
p111
sg85
S'<module>'
p112
sasS'pyver'
p113
S'Python 2.7.2: C:\\Python27\\python.exe (prefix: C:\\Python27)'
p114
sS'session'
p115
g57
(S's\xaa\t\x00\x00<div><table><tr><td style="font-weight:bold;vertical-align:top">auth</td><td valign="top">:</td><td><div><table><tr><td style="font-weight:bold;vertical-align:top">expiration</td><td valign="top">:</td><td><div>3600</div></td></tr><tr><td style="font-weight:bold;vertical-align:top">hmac_key</td><td valign="top">:</td><td><div>869e7317-3d19-4c46-8497-a8bb8e3a75a5</div></td></tr><tr><td style="font-weight:bold;vertical-align:top">last_visit</td><td valign="top">:</td><td><div>datetime.datetime(2013, 6, 11, 20, 38, 7, 102000)</div></td></tr><tr><td style="font-weight:bold;vertical-align:top">remember</td><td valign="top">:</td><td><div>False</div></td></tr><tr><td style="font-weight:bold;vertical-align:top">user</td><td valign="top">:</td><td><div><table><tr><td style="font-weight:bold;vertical-align:top">dob</td><td valign="top">:</td><td><div>None</div></td></tr><tr><td style="font-weight:bold;vertical-align:top">email</td><td valign="top">:</td><td><div>m@m.com</div></td></tr><tr><td style="font-weight:bold;vertical-align:top">first_name</td><td valign="top">:</td><td><div>Moustafa</div></td></tr><tr><td style="font-weight:bold;vertical-align:top">gender</td><td valign="top">:</td><td><div>Male</div></td></tr><tr><td style="font-weight:bold;vertical-align:top">id</td><td valign="top">:</td><td><div>2L</div></td></tr><tr><td style="font-weight:bold;vertical-align:top">last_name</td><td valign="top">:</td><td><div>Mahmoud</div></td></tr><tr><td style="font-weight:bold;vertical-align:top">profile_picture</td><td valign="top">:</td><td><div>auth_user.profile_picture.80c21984478c1596.61696b69646f3378335f726561736f6e61626c795f736d616c6c2e6a7067.jpg</div></td></tr><tr><td style="font-weight:bold;vertical-align:top">registration_id</td><td valign="top">:</td><td><div></div></td></tr><tr><td style="font-weight:bold;vertical-align:top">registration_key</td><td valign="top">:</td><td><div></div></td></tr><tr><td style="font-weight:bold;vertical-align:top">reset_password_key</td><td valign="top">:</td><td><div></div></td></tr><tr><td style="font-weight:bold;vertical-align:top">username</td><td valign="top">:</td><td><div>toto</div></td></tr></table></div></td></tr><tr><td style="font-weight:bold;vertical-align:top">user_groups</td><td valign="top">:</td><td><div><table></table></div></td></tr></table></div></td></tr><tr><td style="font-weight:bold;vertical-align:top">flash</td><td valign="top">:</td><td><div>None</div></td></tr></table></div>'
tRp116
sS'etype'
p117
S"<type 'exceptions.IndexError'>"
p118
sS'date'
p119
S'Tue Jun 11 20:42:13 2013'
p120
sS'response'
p121
g57
(S's\x95\x1e\x00\x00<div><table><tr><td style="font-weight:bold;vertical-align:top">body</td><td valign="top">:</td><td><div>&lt;cStringIO.StringO object at 0x06BFB2A0&gt;</div></td></tr><tr><td style="font-weight:bold;vertical-align:top">cookies</td><td valign="top">:</td><td><div><table><tr><td style="font-weight:bold;vertical-align:top">session_id_speakinquotes</td><td valign="top">:</td><td><div>127.0.0.1-af4a0ad5-6754-44d9-9ca8-6e25140866e5<table><tr><td style="font-weight:bold;vertical-align:top">comment</td><td valign="top">:</td><td><div></div></td></tr><tr><td style="font-weight:bold;vertical-align:top">domain</td><td valign="top">:</td><td><div></div></td></tr><tr><td style="font-weight:bold;vertical-align:top">expires</td><td valign="top">:</td><td><div></div></td></tr><tr><td style="font-weight:bold;vertical-align:top">httponly</td><td valign="top">:</td><td><div></div></td></tr><tr><td style="font-weight:bold;vertical-align:top">max-age</td><td valign="top">:</td><td><div></div></td></tr><tr><td style="font-weight:bold;vertical-align:top">path</td><td valign="top">:</td><td><div>/</div></td></tr><tr><td style="font-weight:bold;vertical-align:top">secure</td><td valign="top">:</td><td><div></div></td></tr><tr><td style="font-weight:bold;vertical-align:top">version</td><td valign="top">:</td><td><div></div></td></tr></table></div></td></tr></table></div></td></tr><tr><td style="font-weight:bold;vertical-align:top">delimiters</td><td valign="top">:</td><td><div><table><tr><td><div>{{</div></td></tr><tr><td><div>}}</div></td></tr></table></div></td></tr><tr><td style="font-weight:bold;vertical-align:top">files</td><td valign="top">:</td><td><div><table><tr><td><div>/SpeakInQuotes/static/js/jquery.js</div></td></tr><tr><td><div>/SpeakInQuotes/static/css/calendar.css</div></td></tr><tr><td><div>/SpeakInQuotes/static/js/calendar.js</div></td></tr><tr><td><div>/SpeakInQuotes/static/js/web2py.js</div></td></tr><tr><td><div>/SpeakInQuotes/static/css/reveal.css</div></td></tr><tr><td><div>/SpeakInQuotes/static/css/web2py.css</div></td></tr><tr><td><div>/SpeakInQuotes/static/css/bootstrap.min.css</div></td></tr><tr><td><div>/SpeakInQuotes/static/css/bootstrap-responsive.min.css</div></td></tr><tr><td><div>/SpeakInQuotes/static/css/web2py_bootstrap.css</div></td></tr></table></div></td></tr><tr><td style="font-weight:bold;vertical-align:top">flash</td><td valign="top">:</td><td><div></div></td></tr><tr><td style="font-weight:bold;vertical-align:top">generic_patterns</td><td valign="top">:</td><td><div><table><tr><td><div>*</div></td></tr></table></div></td></tr><tr><td style="font-weight:bold;vertical-align:top">google_analytics_id</td><td valign="top">:</td><td><div>None</div></td></tr><tr><td style="font-weight:bold;vertical-align:top">headers</td><td valign="top">:</td><td><div><table><tr><td style="font-weight:bold;vertical-align:top">X-Powered-By</td><td valign="top">:</td><td><div>web2py</div></td></tr></table></div></td></tr><tr><td style="font-weight:bold;vertical-align:top">logo</td><td valign="top">:</td><td><div><a class="brand" href="/SpeakInQuotes/default/index"><b>SpeakInQuotes</b></a></div></td></tr><tr><td style="font-weight:bold;vertical-align:top">menu</td><td valign="top">:</td><td><div><table><tr><td><div><table><tr><td><div><img src="/SpeakInQuotes/static/images/home.png" style="width:20px;" title="Home" /></div></td></tr><tr><td><div>False</div></td></tr><tr><td><div>/SpeakInQuotes/default/index</div></td></tr></table></div></td></tr><tr><td><div><table><tr><td><div><img src="/SpeakInQuotes/static/images/profile.png" style="width:20px;" title="Profile" /></div></td></tr><tr><td><div>False</div></td></tr><tr><td><div>/SpeakInQuotes/profile/index/2</div></td></tr></table></div></td></tr><tr><td><div><table><tr><td><div><img src="/SpeakInQuotes/static/images/history.png" style="width:20px;" title="Famous &amp; Historical Quotes" /></div></td></tr><tr><td><div>False</div></td></tr><tr><td><div>/SpeakInQuotes/quotes/famous</div></td></tr></table></div></td></tr><tr><td><div><table><tr><td><div><img src="/SpeakInQuotes/static/images/user-quotes.png" style="width:20px;" title="User Quotes" /></div></td></tr><tr><td><div>False</div></td></tr><tr><td><div>/SpeakInQuotes/quotes/user</div></td></tr></table></div></td></tr><tr><td><div><table><tr><td><div><img src="/SpeakInQuotes/static/images/my-quotes.png" style="width:20px;" title="My Quotes" /></div></td></tr><tr><td><div>False</div></td></tr><tr><td><div>/SpeakInQuotes/myquotes/index</div></td></tr></table></div></td></tr><tr><td><div><table><tr><td><div><img src="/SpeakInQuotes/static/images/user-connections.png" style="width:20px;" title="My Connections" /></div></td></tr><tr><td><div>False</div></td></tr><tr><td><div>/SpeakInQuotes/connections/index</div></td></tr></table></div></td></tr></table></div></td></tr><tr><td style="font-weight:bold;vertical-align:top">meta</td><td valign="top">:</td><td><div><table><tr><td style="font-weight:bold;vertical-align:top">author</td><td valign="top">:</td><td><div>Moustafa Mahmoud &lt;Moustafa.Mahmoud.Fathy@outlook.com&gt;</div></td></tr><tr><td style="font-weight:bold;vertical-align:top">description</td><td valign="top">:</td><td><div>SpeakInQuotes allows you to express your feelings using quotes and connects you with other people who love quotes like you :)</div></td></tr></table></div></td></tr><tr><td style="font-weight:bold;vertical-align:top">models_to_run</td><td valign="top">:</td><td><div><table><tr><td><div>^\\w+\\.py$</div></td></tr><tr><td><div>^connections/\\w+\\.py$</div></td></tr><tr><td><div>^connections/search/\\w+\\.py$</div></td></tr></table></div></td></tr><tr><td style="font-weight:bold;vertical-align:top">postprocessing</td><td valign="top">:</td><td><div><table></table></div></td></tr><tr><td style="font-weight:bold;vertical-align:top">session_cookie_expires</td><td valign="top">:</td><td><div>None</div></td></tr><tr><td style="font-weight:bold;vertical-align:top">session_data_name</td><td valign="top">:</td><td><div>session_data_speakinquotes</div></td></tr><tr><td style="font-weight:bold;vertical-align:top">session_file</td><td valign="top">:</td><td><div>&lt;open file &#x27;E:\\projects\\Repos\\speakinquotes\\web2py\\applications\\SpeakInQuotes\\sessions\\127.0.0.1-af4a0ad5-6754-44d9-9ca8-6e25140866e5&#x27;, mode &#x27;rb+&#x27; at 0x06F01440&gt;</div></td></tr><tr><td style="font-weight:bold;vertical-align:top">session_filename</td><td valign="top">:</td><td><div>E:\\projects\\Repos\\speakinquotes\\web2py\\applications\\SpeakInQuotes\\sessions\\127.0.0.1-af4a0ad5-6754-44d9-9ca8-6e25140866e5</div></td></tr><tr><td style="font-weight:bold;vertical-align:top">session_id</td><td valign="top">:</td><td><div>127.0.0.1-af4a0ad5-6754-44d9-9ca8-6e25140866e5</div></td></tr><tr><td style="font-weight:bold;vertical-align:top">session_id_name</td><td valign="top">:</td><td><div>session_id_speakinquotes</div></td></tr><tr><td style="font-weight:bold;vertical-align:top">session_locked</td><td valign="top">:</td><td><div>True</div></td></tr><tr><td style="font-weight:bold;vertical-align:top">session_new</td><td valign="top">:</td><td><div>False</div></td></tr><tr><td style="font-weight:bold;vertical-align:top">session_storage_type</td><td valign="top">:</td><td><div>file</div></td></tr><tr><td style="font-weight:bold;vertical-align:top">status</td><td valign="top">:</td><td><div>200</div></td></tr><tr><td style="font-weight:bold;vertical-align:top">subtitle</td><td valign="top">:</td><td><div>find your friends on SpeakInQuotes</div></td></tr><tr><td style="font-weight:bold;vertical-align:top">title</td><td valign="top">:</td><td><div>Search Users</div></td></tr><tr><td style="font-weight:bold;vertical-align:top">view</td><td valign="top">:</td><td><div>connections/search.html</div></td></tr></table></div>'
tRp122
sS'locals'
p123
(dp124
S'Service'
p125
S"<class 'gluon.tools.Service'>"
p126
sS'OBJECT'
p127
S"<class 'gluon.html.OBJECT'>"
p128
sS'SQLDB'
p129
S"<class 'gluon.dal.DAL'>"
p130
sg115
S"<Storage {'_formkey[login]': '7dc6175f-3623-405f...: '', 'email': 'm@m.com'}>, 'user_groups': {}}>}>"
p131
sS'LINK'
p132
S"<class 'gluon.html.LINK'>"
p133
sS'BR'
p134
S"<class 'gluon.html.BR'>"
p135
sS'local_import'
p136
S'<function <lambda>>'
p137
sS'OPTGROUP'
p138
S"<class 'gluon.html.OPTGROUP'>"
p139
sS'__package__'
p140
S'None'
p141
sS'PRE'
p142
S"<class 'gluon.html.PRE'>"
p143
sS'IS_INT_IN_RANGE'
p144
S"<class 'gluon.validators.IS_INT_IN_RANGE'>"
p145
sS'left_sidebar_enabled'
p146
S'True'
p147
sS'IS_LOWER'
p148
S"<class 'gluon.validators.IS_LOWER'>"
p149
sS'IS_STRONG'
p150
S"<class 'gluon.validators.IS_STRONG'>"
p151
sS'Recaptcha'
p152
S"<class 'gluon.tools.Recaptcha'>"
p153
sS'cache'
p154
S'<gluon.cache.Cache object>'
p155
sS'STYLE'
p156
S"<class 'gluon.html.STYLE'>"
p157
sS'IS_IN_DB'
p158
S"<class 'gluon.validators.IS_IN_DB'>"
p159
sS'TAG'
p160
S'<gluon.html.__TAG__ object>'
p161
sS'SQLField'
p162
S"<class 'gluon.dal.Field'>"
p163
sS'mail'
p164
S'<gluon.tools.Mail object>'
p165
sS'BODY'
p166
S"<class 'gluon.html.BODY'>"
p167
sS'IS_DATE_IN_RANGE'
p168
S"<class 'gluon.validators.IS_DATE_IN_RANGE'>"
p169
sS'IFRAME'
p170
S"<class 'gluon.html.IFRAME'>"
p171
sS'URL'
p172
S'<function URL>'
p173
sS'__file__'
p174
S"r'E:\\projects\\Repos\\speakinquotes\\web2py\\applications\\SpeakInQuotes\\views\\connections/search.html'"
p175
sS'db'
p176
S'<DAL uri="sqlite://storage.sqlite">'
p177
sS'auth'
p178
S'<gluon.tools.Auth object>'
p179
sS'NUM_FRIENDS_INPAGE'
p180
S'12'
p181
sS'P'
S"<class 'gluon.html.P'>"
p182
sS'TFOOT'
p183
S"<class 'gluon.html.TFOOT'>"
p184
sS'XHTML'
p185
S"<class 'gluon.html.XHTML'>"
p186
sS'ON'
p187
g147
sS'OL'
p188
S"<class 'gluon.html.OL'>"
p189
sS'TEXTAREA'
p190
S"<class 'gluon.html.TEXTAREA'>"
p191
sS'MENU'
p192
S"<class 'gluon.html.MENU'>"
p193
sS'initial_subcategories'
p194
S"[{'category': '1', 'name': 'Affairs', 'orderno': '1'}, {'category': '1', 'name': 'Broken Hearts & Betrayal', 'orderno': '1'}, {'category': '1', 'name': 'Crushes & Obsessions', 'orderno': '1'}, {'category': '1', 'name': 'Divorce', 'orderno': '1'}, {'category': '1', 'name': 'First Love', 'orderno': '1'}, {'category': '1', 'name': 'Intimacy', 'orderno': '1'}, {'category': '1', 'name': 'Marriage', 'orderno': '1'}, {'category': '1', 'name': 'Romance & True Love', 'orderno': '1'}, {'category': '1', 'name': 'Struggles', 'orderno': '1'}, {'category': '2', 'name': 'Family Struggles', 'orderno': '1'}, {'category': '2', 'name': 'Fatherhood', 'orderno': '1'}, {'category': '2', 'name': 'Loss in the Family', 'orderno': '1'}, {'category': '2', 'name': 'Loss of a Child', 'orderno': '1'}, {'category': '2', 'name': 'Loss of a Friend', 'orderno': '1'}, {'category': '2', 'name': 'Loss of a Pet', 'orderno': '1'}, {'category': '2', 'name': 'Pets', 'orderno': '1'}, {'category': '2', 'name': 'Loneliness', 'orderno': '1'}, {'category': '3', 'name': 'Addiction', 'orderno': '1'}, {'category': '3', 'name': 'Suicide', 'orderno': '1'}, {'category': '3', 'name': 'Depression', 'orderno': '1'}, ...]"
p195
sS'Connections'
p196
S'None'
p197
sS'IS_IMAGE'
p198
S"<class 'gluon.validators.IS_IMAGE'>"
p199
sS'EM'
p200
S"<class 'gluon.html.EM'>"
p201
sS'CODE'
p202
S"<class 'gluon.html.CODE'>"
p203
sS'HTTP'
p204
S"<class 'gluon.http.HTTP'>"
p205
sS'HR'
p206
S"<class 'gluon.html.HR'>"
p207
sS'IS_DATETIME'
p208
S"<class 'gluon.validators.IS_DATETIME'>"
p209
sS'NUM_QUOTES_INPAGE'
p210
S'10'
p211
sS'LABEL'
p212
S"<class 'gluon.html.LABEL'>"
p213
sS'CLEANUP'
p214
S"<class 'gluon.validators.CLEANUP'>"
p215
sS'plugins'
p216
S'<gluon.tools.PluginManager object>'
p217
sS'NOTIFICATION_TYPES'
p218
S"['new_quote', 'new_comment']"
p219
sS'SELECT'
p220
S"<class 'gluon.html.SELECT'>"
p221
sS'use_janrain'
p222
S'<function use_janrain>'
p223
sS'CENTER'
p224
S"<class 'gluon.html.CENTER'>"
p225
sS'prettydate'
p226
S'<function prettydate>'
p227
sS'redirect'
p228
S'<function redirect>'
p229
sS'Crud'
p230
S"<class 'gluon.tools.Crud'>"
p231
sS'Auth'
p232
S"<class 'gluon.tools.Auth'>"
p233
sS'DEVELOPMENT_MENU'
p234
S'False'
p235
sS'CascadingSelect'
p236
S"<class '__restricted__.CascadingSelect'>"
p237
sS'__builtins__'
p238
S"{'ArithmeticError': <type 'exceptions.ArithmeticError'>, 'AssertionError': <type 'exceptions.AssertionError'>, 'AttributeError': <type 'exceptions.AttributeError'>, 'BaseException': <type 'exceptions.BaseException'>, 'BufferError': <type 'exceptions.BufferError'>, 'BytesWarning': <type 'exceptions.BytesWarning'>, 'DeprecationWarning': <type 'exceptions.DeprecationWarning'>, 'EOFError': <type 'exceptions.EOFError'>, 'Ellipsis': Ellipsis, 'EnvironmentError': <type 'exceptions.EnvironmentError'>, ...}"
p239
sS'HTML'
p240
S"<class 'gluon.html.HTML'>"
p241
sS'SQLFORM'
p242
S"<class 'gluon.sqlhtml.SQLFORM'>"
p243
sS'LOAD'
p244
S'<function LOAD>'
p245
sS'GENDER_SET'
p246
S"[<lazyT 'Male'>, <lazyT 'Female'>]"
p247
sS'FIELDSET'
p248
S"<class 'gluon.html.FIELDSET'>"
p249
sS'IS_EQUAL_TO'
p250
S"<class 'gluon.validators.IS_EQUAL_TO'>"
p251
sS'get_category_picker'
p252
S'<function get_category_picker>'
p253
sS'embed64'
p254
S'<function embed64>'
p255
sS'IS_LIST_OF'
p256
S"<class 'gluon.validators.IS_LIST_OF'>"
p257
sS'__name__'
p258
S"'__restricted__'"
p259
sS'EMBED'
p260
S"<class 'gluon.html.EMBED'>"
p261
sS'IS_NOT_IN_DB'
p262
S"<class 'gluon.validators.IS_NOT_IN_DB'>"
p263
sS'H2'
p264
S"<class 'gluon.html.H2'>"
p265
sS'H3'
p266
S"<class 'gluon.html.H3'>"
p267
sS'BUTTON'
p268
S"<class 'gluon.html.BUTTON'>"
p269
sS'H1'
p270
S"<class 'gluon.html.H1'>"
p271
sS'H6'
p272
S"<class 'gluon.html.H6'>"
p273
sS'H4'
p274
S"<class 'gluon.html.H4'>"
p275
sS'H5'
p276
S"<class 'gluon.html.H5'>"
p277
sS'NUM_QUESTIONS_INPAGE'
p278
S'10'
p279
sS'IS_UPPER'
p280
S"<class 'gluon.validators.IS_UPPER'>"
p281
sS'xmlescape'
p282
S'<function xmlescape>'
p283
sS'IS_TIME'
p284
S"<class 'gluon.validators.IS_TIME'>"
p285
sS'get_quotes_comment_box'
p286
S'<function get_quotes_comment_box>'
p287
sS'OPTION'
p288
S"<class 'gluon.html.OPTION'>"
p289
sS'TITLE'
p290
S"<class 'gluon.html.TITLE'>"
p291
sS'DEFAULT'
p292
S'<function <lambda>>'
p293
sS'CRYPT'
p294
S"<class 'gluon.validators.CRYPT'>"
p295
sS'IS_EMPTY_OR'
p296
S"<class 'gluon.validators.IS_EMPTY_OR'>"
p297
sS'MARKMIN'
p298
S"<class 'gluon.html.MARKMIN'>"
p299
sS'INPUT'
p300
S"<class 'gluon.html.INPUT'>"
p301
sS'STRONG'
p302
S"<class 'gluon.html.STRONG'>"
p303
sS'COL'
p304
S"<class 'gluon.html.COL'>"
p305
sS'service'
p306
S'<gluon.tools.Service object>'
p307
sS'SCRIPT'
p308
S"<class 'gluon.html.SCRIPT'>"
p309
sS'initial_categories'
p310
S"[{'name': 'Relationships', 'ordernono': '1'}, {'name': 'Family & Friends', 'ordernono': '2'}, {'name': 'Health & Wellness', 'ordernono': '3'}, {'name': 'Culture', 'ordernono': '4'}, {'name': 'Community', 'ordernono': '5'}, {'name': 'Education', 'ordernono': '6'}, {'name': 'Arts', 'ordernono': '7'}, {'name': 'Habits', 'ordernono': '8'}]"
p311
sS'name_of'
p312
S'<function name_of>'
p313
sS'is_mobile'
p314
g235
sS'TABLE'
p315
S"<class 'gluon.html.TABLE'>"
p316
sS'IS_IPV4'
p317
S"<class 'gluon.validators.IS_IPV4'>"
p318
sS'IS_LENGTH'
p319
S"<class 'gluon.validators.IS_LENGTH'>"
p320
sS'IS_IPV6'
p321
S"<class 'gluon.validators.IS_IPV6'>"
p322
sS'XML'
p323
S"<class 'gluon.html.XML'>"
p324
sS'NUM_NOTIFICATIOS_INPAGE'
p325
S'10'
p326
sS'B'
S"<class 'gluon.html.B'>"
p327
sS'IMG'
p328
S"<class 'gluon.html.IMG'>"
p329
sS'SQLTABLE'
p330
S"<class 'gluon.sqlhtml.SQLTABLE'>"
p331
sS'IS_MATCH'
p332
S"<class 'gluon.validators.IS_MATCH'>"
p333
sS'IS_ALPHANUMERIC'
p334
S"<class 'gluon.validators.IS_ALPHANUMERIC'>"
p335
sS'get_category_name'
p336
S'<function get_category_name>'
p337
sS'me'
p338
S'2L'
p339
sS'SPAN'
p340
S"<class 'gluon.html.SPAN'>"
p341
sS'IS_JSON'
p342
S"<class 'gluon.validators.IS_JSON'>"
p343
sS'IS_IPADDRESS'
p344
S"<class 'gluon.validators.IS_IPADDRESS'>"
p345
sS'IS_SLUG'
p346
S"<class 'gluon.validators.IS_SLUG'>"
p347
sS'BEAUTIFY'
p348
S"<class 'gluon.html.BEAUTIFY'>"
p349
sS'META'
p350
S"<class 'gluon.html.META'>"
p351
sS'get_quotes_search_form'
p352
S'<function get_quotes_search_form>'
p353
sS'IS_DATE'
p354
S"<class 'gluon.validators.IS_DATE'>"
p355
sS'IS_EMAIL'
p356
S"<class 'gluon.validators.IS_EMAIL'>"
p357
sS'IS_NOT_EMPTY'
p358
S"<class 'gluon.validators.IS_NOT_EMPTY'>"
p359
sS'IS_FLOAT_IN_RANGE'
p360
S"<class 'gluon.validators.IS_FLOAT_IN_RANGE'>"
p361
sS'TBODY'
p362
S"<class 'gluon.html.TBODY'>"
p363
sS'CAT'
p364
S"<class 'gluon.html.CAT'>"
p365
sS'Field'
p366
S"<class 'gluon.dal.Field'>"
p367
sS'middle_columns'
p368
S"'span9'"
p369
sS'DIV'
p370
S"<class 'gluon.html.DIV'>"
p371
sS'LEGEND'
p372
S"<class 'gluon.html.LEGEND'>"
p373
sS'UL'
p374
S"<class 'gluon.html.UL'>"
p375
sS'DAL'
p376
S"<class 'gluon.dal.DAL'>"
p377
sS'TT'
p378
S"<class 'gluon.html.TT'>"
p379
sS'TR'
p380
S"<class 'gluon.html.TR'>"
p381
sS'LI'
p382
S"<class 'gluon.html.LI'>"
p383
sS'right_sidebar_enabled'
p384
g235
sS'TH'
p385
S"<class 'gluon.html.TH'>"
p386
sS'TD'
p387
S"<class 'gluon.html.TD'>"
p388
sS'PluginManager'
p389
S"<class 'gluon.tools.PluginManager'>"
p390
sS'IS_URL'
p391
S"<class 'gluon.validators.IS_URL'>"
p392
sS'A'
S"<class 'gluon.html.A'>"
p393
sS'HEAD'
p394
S"<class 'gluon.html.HEAD'>"
p395
sS'IS_DATETIME_IN_RANGE'
p396
S"<class 'gluon.validators.IS_DATETIME_IN_RANGE'>"
p397
sS'FORM'
p398
S"<class 'gluon.html.FORM'>"
p399
sS'I'
S"<class 'gluon.html.I'>"
p400
sS'crud'
p401
S'<gluon.tools.Crud object>'
p402
sS'a1'
p403
S'None'
p404
sS'a0'
p405
S'None'
p406
sS'a2'
p407
S'None'
p408
sS'newnavbar'
p409
S'<function newnavbar>'
p410
sg121
S"<Storage {'body': <cStringIO.StringO object at 0... 0x06EC8DF0>, 'view': 'connections/search.html'}>"
p411
sS'THEAD'
p412
S"<class 'gluon.html.THEAD'>"
p413
sS'ANY_OF'
p414
S"<class 'gluon.validators.ANY_OF'>"
p415
sS'IS_NULL_OR'
p416
S"<class 'gluon.validators.IS_EMPTY_OR'>"
p417
sS'COLGROUP'
p418
S"<class 'gluon.html.COLGROUP'>"
p419
sg56
S"<Storage {'function': 'search', 'body': <cString...ns\\\\SpeakInQuotes\\\\', 'post_vars': <Storage {}>}>"
p420
sS'IS_EXPR'
p421
S"<class 'gluon.validators.IS_EXPR'>"
p422
sS'T'
S'<gluon.languages.translator object>'
p423
sS'cascade'
p424
S'<__restricted__.CascadingSelect object>'
p425
sS'IS_IN_SET'
p426
S"<class 'gluon.validators.IS_IN_SET'>"
p427
sS'IS_UPLOAD_FILENAME'
p428
S"<class 'gluon.validators.IS_UPLOAD_FILENAME'>"
p429
sS'pretty_date'
p430
S'<function pretty_date>'
p431
sS're'
p432
S"<module 're' from 'C:\\Python27\\lib\\re.pyc'>"
p433
sS'IS_DECIMAL_IN_RANGE'
p434
S"<class 'gluon.validators.IS_DECIMAL_IN_RANGE'>"
p435
sssS'traceback'
p436
S'Traceback (most recent call last):\n  File "E:\\projects\\Repos\\speakinquotes\\web2py\\gluon\\restricted.py", line 212, in restricted\n    exec ccode in environment\n  File "E:\\projects\\Repos\\speakinquotes\\web2py\\applications\\SpeakInQuotes\\views\\connections/search.html", line 106, in <module>\nIndexError: list index out of range\n'
p437
s.