(dp1
S'output'
p2
S"<type 'exceptions.NameError'> name 'SEO' is not defined"
p3
sS'layer'
p4
S'E:\\projects\\Repos\\speakinquotes\\web2py\\applications\\SpeakInQuotes\\views\\home/index.html'
p5
sS'code'
p6
S'left_sidebar_enabled,right_sidebar_enabled=True,False\nresponse.write(\'\\r\\n\', escape=False)\nresponse.write(\'<!--[if HTML5]><![endif]-->\\n<!DOCTYPE html>\\n<!-- paulirish.com/2008/conditional-stylesheets-vs-css-hacks-answer-neither/ -->\\n<!--[if lt IE 7]><html class="ie ie6 ie-lte9 ie-lte8 ie-lte7 no-js" lang="\', escape=False)\nresponse.write(T.accepted_language or \'en\')\nresponse.write(\'"> <![endif]-->\\n<!--[if IE 7]><html class="ie ie7 ie-lte9 ie-lte8 ie-lte7 no-js" lang="\', escape=False)\nresponse.write(T.accepted_language or \'en\')\nresponse.write(\'"> <![endif]-->\\n<!--[if IE 8]><html class="ie ie8 ie-lte9 ie-lte8 no-js" lang="\', escape=False)\nresponse.write(T.accepted_language or \'en\')\nresponse.write(\'"> <![endif]-->\\n<!--[if IE 9]><html class="ie9 ie-lte9 no-js" lang="\', escape=False)\nresponse.write(T.accepted_language or \'en\')\nresponse.write(\'"> <![endif]-->\\n<!--[if (gt IE 9)|!(IE)]><!--> <html class="no-js" lang="\', escape=False)\nresponse.write(T.accepted_language or \'en\')\nresponse.write(\'"> <!--<![endif]-->\\n<head>\\n<title>\', escape=False)\nresponse.write(response.title or request.application)\nresponse.write(\'</title>\\n  <!--[if !HTML5]>\\n      <meta http-equiv="X-UA-Compatible" content="IE=edge\', escape=False)\nresponse.write(not request.is_local and \',chrome=1\' or \'\')\nresponse.write(\'">\\n  <![endif]-->\\n  <!-- www.phpied.com/conditional-comments-block-downloads/ -->\\n  <!-- Always force latest IE rendering engine\\n       (even in intranet) & Chrome Frame\\n       Remove this if you use the .htaccess -->\\n\', escape=False)\nSEO(title=\'SpeakInQuotes\', description=\'SpeakInQuotes allows you to express your feelings using quotes and connects you with other people who love quotes\', author=\'Moustafa Mahmoud Fathy\')\nresponse.write(\'\\t   \\n  <meta charset="utf-8" />\\n\\n  <!-- http://dev.w3.org/html5/markup/meta.name.html -->\\n  <meta name="application-name" content="\', escape=False)\nresponse.write(request.application)\nresponse.write(\'" />\\n\\n  <!-- Speaking of Google, don\\\'t forget to set your site up:\\n       http://google.com/webmasters -->\\n  <meta name="google-site-verification" content="" />\\n\\n  <!--  Mobile Viewport Fix\\n        j.mp/mobileviewport & davidbcalhoun.com/2010/viewport-metatag\\n        device-width: Occupy full width of the screen in its current orientation\\n        initial-scale = 1.0 retains dimensions instead of zooming out if page height > device height\\n        user-scalable = yes allows the user to zoom in -->\\n  <meta name="viewport" content="width=device-width, initial-scale=1.0" />\\n\\n  <link rel="shortcut icon" href="\', escape=False)\nresponse.write(URL(\'static\',\'images/favicon.ico\'))\nresponse.write(\'" type="image/x-icon">\\n  <link rel="apple-touch-icon" href="\', escape=False)\nresponse.write(URL(\'static\',\'images/favicon.png\'))\nresponse.write(\'">\\n\\n  <!-- All JavaScript at the bottom, except for Modernizr which enables\\n       HTML5 elements & feature detects -->\\n  <script src="\', escape=False)\nresponse.write(URL(\'static\',\'js/modernizr.custom.js\'))\nresponse.write(\'"></script>\\n\\n  <!-- include stylesheets -->\\n  \', escape=False)\nresponse.files.append(URL(\'static\',\'css/web2py.css\'))\nresponse.files.append(URL(\'static\',\'css/bootstrap.min.css\'))\nresponse.files.append(URL(\'static\',\'css/bootstrap-responsive.min.css\'))\nresponse.files.append(URL(\'static\',\'css/web2py_bootstrap.css\'))\nresponse.write(\'\\n  \\n  \', escape=False)\nresponse.write(\'<script type="text/javascript"><!--\\n    // These variables are used by the web2py_ajax_init function in web2py_ajax.js (which is loaded below).\\n    var w2p_ajax_confirm_message = "\', escape=False)\nresponse.write(T(\'Are you sure you want to delete this object?\'))\nresponse.write(\'";\\n    var w2p_ajax_date_format = "\', escape=False)\nresponse.write(T(\'%Y-%m-%d\'))\nresponse.write(\'";\\n    var w2p_ajax_datetime_format = "\', escape=False)\nresponse.write(T(\'%Y-%m-%d %H:%M:%S\'))\nresponse.write(\'";\\n    var ajax_error_500 = \\\'\', escape=False)\nresponse.write(XML(T(\'An error occured, please %s the page\') % A(T(\'reload\'), _href=URL(args=request.args, vars=request.get_vars))))\nresponse.write("\'\\n    //--></script>\\n", escape=False)\nresponse.files.insert(0,URL(\'static\',\'js/jquery.js\'))\nresponse.files.insert(1,URL(\'static\',\'css/calendar.css\'))\nresponse.files.insert(2,URL(\'static\',\'js/calendar.js\'))\nresponse.files.insert(3,URL(\'static\',\'js/web2py.js\'))\nresponse.include_meta()\nresponse.include_files()\nresponse.write(\'\\n\', escape=False)\nresponse.write(\'\\n\\n  \', escape=False)\n# using sidebars need to know what sidebar you want to use\nleft_sidebar_enabled = globals().get(\'left_sidebar_enabled\',False)\nright_sidebar_enabled = globals().get(\'right_sidebar_enabled\',False)\nmiddle_columns = {0:\'span12\',1:\'span9\',2:\'span6\'}[\n(left_sidebar_enabled and 1 or 0)+(right_sidebar_enabled and 1 or 0)]\nresponse.write(\'\\n\\n\\n       <link rel="stylesheet" href="https://ajax.googleapis.com/ajax/libs/jqueryui/1.8.16/themes/base/jquery-ui.css" type="text/css" media="all" />\\n       <script src="https://ajax.googleapis.com/ajax/libs/jqueryui/1.8.16/jquery-ui.min.js" type="text/javascript"></script>\\n       \\n  <noscript><link href="\', escape=False)\nresponse.write(URL(\'static\', \'css/web2py_bootstrap_nojs.css\'))\nresponse.write(\'" rel="stylesheet" type="text/css" /></noscript>\\n  \', escape=False)\nresponse.write(\'\\n</head>\\n\\n<body>\\n  <!-- Navbar ================================================== -->\\n  <div class="navbar navbar-inverse navbar-fixed-top">\\n    <div class="flash">\', escape=False)\nresponse.write(response.flash or \'\')\nresponse.write(\'</div>\\n    <div class="navbar-inner">\\n      <div class="container">\\n        <!-- the next tag is necessary for bootstrap menus, do not remove -->\\n        <button type="button" class="btn btn-navbar" data-toggle="collapse" data-target=".nav-collapse">\\n          <span class="icon-bar"></span>\\n          <span class="icon-bar"></span>\\n          <span class="icon-bar"></span>\\n        </button>\\n\\t\', escape=False)\nresponse.write(response.logo or \'\')\nresponse.write(\'\\n        <ul id="navbar" class="nav pull-right">\', escape=False)\nresponse.write(\'auth\' in globals() and newnavbar(mode="dropdown") or \'\')\nresponse.write(\'</ul>\\n        <div class="nav-collapse">\\n          \', escape=False)\nis_mobile=request.user_agent().is_mobile\nresponse.write(\'\\n          \', escape=False)\nif response.menu:\n    response.write(\'\\n          \', escape=False)\n    response.write(MENU(response.menu, _class=\'mobile-menu nav\' if is_mobile else \'nav\',mobile=is_mobile,li_class=\'dropdown\',ul_class=\'dropdown-menu\'))\n    response.write(\'\\n          \', escape=False)\n    pass\nresponse.write(\'\\n        </div><!--/.nav-collapse -->\\n      </div>\\n    </div>\\n  </div><!--/top navbar -->\\n\\n  <div class="container">\\n    <!-- Masthead ================================================== -->\\n    <header class="mastheader row" id="header">\\n      \', escape=False)\nif response.title:\n    response.write(\'\\n        <div class="span12">\\n            <div class="page-header">\\n                <h1>\\n                    \', escape=False)\n    response.write(response.title)\n    response.write(\'\\n                    <small>\', escape=False)\n    response.write(response.subtitle or \'\')\n    response.write(\'</small>\\n                </h1>\\n            </div>\\n        </div>\\n\\t\', escape=False)\n    pass\nresponse.write(\'\\n    </header>\\n\\n    <section id="main" class="main row">\\n        \', escape=False)\nif left_sidebar_enabled:\n    response.write(\'\\n        <div class="span3 left-sidebar">\\n            \', escape=False)\n    response.write(\'\\r\\n<b>\', escape=False)\n    response.write(T(\'Your User Profile\')+" : ")\n    response.write(\'</b>\\r\\n</br>\\r\\n\', escape=False)\n    if auth.user.profile_picture:\n        response.write(\'\\r\\n<img src="\', escape=False)\n        response.write(URL(\'default\',\'download\',args=(auth.user.profile_picture)))\n        response.write(\'" style="width:100px; height=100px;">\\r\\n\', escape=False)\n    else:\n        response.write(\'\\r\\n<img src="\', escape=False)\n        response.write(URL(\'static\',\'images/question.png\'))\n        response.write(\'" style="width:100px; height=100px;" >\\r\\n\', escape=False)\n        pass\n    response.write(\'\\r\\n</br>\\r\\n</br>\\r\\n<B>\\r\\n\', escape=False)\n    response.write(auth.user.first_name+" "+ auth.user.last_name)\n    response.write(\'\\r\\n</B>\\r\\n</br>\\r\\n<b>\\r\\n\', escape=False)\n    response.write(auth.user.gender)\n    response.write(\'\\r\\n</b>\\r\\n</br>\\r\\n<b>\\r\\n<a href="\', escape=False)\n    response.write(URL(\'default\',\'user\',args=(\'profile\')))\n    response.write(\'">Edit Profile</a>\\r\\n</b>\\r\\n\', escape=False)\n    response.write(\'\\n        </div>\\n        \', escape=False)\n    pass\nresponse.write(\'\\n\\n        <div class="\', escape=False)\nresponse.write(middle_columns)\nresponse.write(\'">\\n            \', escape=False)\nresponse.write(\'\\n            \', escape=False)\nresponse.write(\'\\r\\n\\r\\n\\r\\n<script>\\r\\n $(\\\'document\\\').ready(function(){\\r\\n $(\\\'aliascombo\\\').change(function(){\\r\\n $(\\\'alias_picker\\\').submit();});\\r\\n});\\r\\n\\r\\n $(function() {\\r\\n$( "#fav_tabs" ).tabs().addClass( "ui-tabs-vertical ui-helper-clearfix" );\\r\\n$( "#fav_tabs li" ).removeClass( "ui-corner-top" ).addClass( "ui-corner-left" );\\r\\n  });\\r\\n  \\r\\n</script>\\r\\n\\r\\n\\r\\n\\r\\n\\r\\n<style>\\r\\n  .ui-tabs-vertical { width: 55em; }\\r\\n  .ui-tabs-vertical .ui-tabs-nav { padding: .2em .1em .2em .2em; float: left; width: 12em; }\\r\\n  .ui-tabs-vertical .ui-tabs-nav li { clear: left; width: 100%; border-bottom-width: 1px !important; border-right-width: 0 !important; margin: 0 -1px .2em 0; }\\r\\n  .ui-tabs-vertical .ui-tabs-nav li a { display:block; }\\r\\n  .ui-tabs-vertical .ui-tabs-nav li.ui-tabs-active { padding-bottom: 0; padding-right: .1em; border-right-width: 1px; border-right-width: 1px; }\\r\\n  .ui-tabs-vertical .ui-tabs-panel { padding: 1em; float: right; width: 40em;}\\r\\n  </style>\\r\\n  \\r\\n  \\r\\n<fieldset>\\r\\n<legend>\\r\\nQuote of the day\\r\\n</legend>\\r\\n\', escape=False)\nif quoteofday:\n    response.write(\'\\r\\n<article class="post_listing">\\r\\n\\t\\t<blockquote>\\r\\n        \', escape=False)\n    response.write(A(quoteofday[0].fav_quote.body,_href=URL(request.application ,\'quotes\',\'view\',args=[quoteofday[0].fav_quote.id],extension=False),))\n    response.write(\'\\r\\n        </blockquote>\\r\\n        <footer>\\r\\n        <B>- \\r\\n        \', escape=False)\n    if not (quoteofday[0].fav_quote.is_user):\n        response.write(\'\\r\\n        \', escape=False)\n        response.write(quoteofday[0].fav_quote.author)\n        response.write(\'\\r\\n        \', escape=False)\n    else:\n        response.write(\'\\r\\n        \', escape=False)\n        response.write(quoteofday[0].fav_quote.author)\n        response.write(\'\\r\\n        </Br>\\r\\n        \', escape=False)\n        response.write(T(\'Quote by User\')+" : ")\n        response.write(\'\\r\\n        <a href="\', escape=False)\n        response.write(URL(\'profile\',\'index\',args=(quoteofday[0].fav_quote.posted_by)))\n        response.write(\'">\\r\\n        \', escape=False)\n        response.write(name_of(quoteofday[0].fav_quote.posted_by))\n        response.write(\'\\r\\n        </a>\\r\\n        \', escape=False)\n        pass\n    response.write(\'\\r\\n        </B>\\r\\n        </br>\\r\\n        <b>\\r\\n        \', escape=False)\n    response.write(T(\'Category\')+" : ")\n    response.write(\'\\r\\n        </b>\\r\\n        \', escape=False)\n    response.write(quoteofday[0].fav_quote.category.name)\n    response.write(\'\\r\\n        </footer>\\r\\n</article>\\r\\n\', escape=False)\n    pass\nresponse.write(\'\\r\\n</br>\\r\\n\\r\\n<legend>\\r\\nNotifications\\r\\n</legend>\\r\\n\', escape=False)\nresponse.write(LOAD(\'home\',\'List_User_Notifications.load\',ajax=True))\nresponse.write(\'\\r\\n\\r\\n<legend>\\r\\nMy Favorite Quotes\\r\\n</legend>\\r\\n\\r\\n<div id="fav_tabs" >\\r\\n  <ul>\\r\\n\\t\', escape=False)\nfor i in categories:\n    response.write(\'\\r\\n\\t <li><a href="#fav_tabs-\', escape=False)\n    response.write(i+1)\n    response.write(\'">\', escape=False)\n    response.write(categories[i][\'name\'])\n    response.write(\'</a></li>\\r\\n    \', escape=False)\n    pass\nresponse.write(\'\\r\\n  \\r\\n  </ul>\\r\\n\\t\\t \\r\\n\\t\', escape=False)\nfor i in categories:\n    response.write(\'\\r\\n\\t\\t <div id="fav_tabs-\', escape=False)\n    response.write(i+1)\n    response.write(\'" >\\r\\n\\t\\t\\t\', escape=False)\n    response.write(LOAD(\'home\',\'List_Favorite_Quotes.load\',args=(categories[i][\'id\']),ajax=True))\n    response.write(\'\\r\\n\\t\\t </div>\\r\\n    \', escape=False)\n    pass\nresponse.write(\'\\r\\n    \\r\\n</div>\\r\\n\\r\\n\\r\\n</fieldset>\\r\\n \\r\\n\\r\\n\\r\\n\', escape=False)\nresponse.write(\'\\r\\n\', escape=False)\nresponse.write(\'\\n            \', escape=False)\nresponse.write(\'\\n        </div>\\n\\n        \', escape=False)\nif right_sidebar_enabled:\n    response.write(\'\\n        <div class="span3">\\n            \', escape=False)\n    response.write(\'\\n            <h3>Right Sidebar</h3>\\n            <p></p>\\n            \', escape=False)\n    response.write(\'\\n        </div>\\n        \', escape=False)\n    pass\nresponse.write(\'\\n    </section><!--/main-->\\n\\n    <!-- Footer ================================================== -->\\n    <div class="row">\\n        <footer class="footer span12" id="footer">\\n            <div class="footer-content">\\n                \', escape=False)\nresponse.write(\' <!-- this is default footer -->\\n                <div class="copyright pull-left">\', escape=False)\nresponse.write(T(\'Copyright\'))\nresponse.write(\' &#169; \', escape=False)\nresponse.write(request.now.year)\nresponse.write(\'</div>\\n                <div id="poweredBy" class="pull-right">\\n                    \', escape=False)\nresponse.write(T(\'All Rightes Reserved\'))\nresponse.write(\'\\n                    <a href="http://www.cmpsamurai.com/">Moustafa Mahmoud (cmpsamurai)</a>\\n                </div>\\n                \', escape=False)\nresponse.write(\'\\n            </div>\\n        </footer>\\n    </div>\\n\\n  </div> <!-- /container -->\\n\\n  <!-- The javascript =============================================\\n       (Placed at the end of the document so the pages load faster) -->\\n  <script src="\', escape=False)\nresponse.write(URL(\'static\',\'js/bootstrap.min.js\'))\nresponse.write(\'"></script>\\n  <script src="\', escape=False)\nresponse.write(URL(\'static\',\'js/web2py_bootstrap.js\'))\nresponse.write(\'"></script>\\n  <!--[if lt IE 7 ]>\\n      <script src="\', escape=False)\nresponse.write(URL(\'static\',\'js/dd_belatedpng.js\'))\nresponse.write(\'"></script>\\n      <script> DD_belatedPNG.fix(\\\'img, .png_bg\\\'); //fix any <img> or .png_bg background-images </script>\\n      <![endif]-->\\n  \\n  \', escape=False)\nif response.google_analytics_id:\n    response.write(\'\\n  <script src="\', escape=False)\n    response.write(URL(\'static\',\'js/analytics.min.js\'))\n    response.write(\'"></script>\\n  <script type="text/javascript">\\n  analytics.initialize({\\n    \\\'Google Analytics\\\':{trackingId:\\\'\', escape=False)\n    response.write(response.google_analytics_id)\n    response.write("\'} \\n  });</script>\\n  ", escape=False)\n    pass\nresponse.write(\'\\n  <script src="\', escape=False)\nresponse.write(URL(\'static\',\'js/share.js\',vars=dict(static=URL(\'static\',\'images\'))))\nresponse.write(\'"></script>\\n</body>\\n</html>\\n\\n\', escape=False)'
p7
sS'snapshot'
p8
(dp9
S'exception'
p10
(dp11
S'__hash__'
p12
S"<method-wrapper '__hash__' of exceptions.NameError object>"
p13
sS'__setattr__'
p14
S"<method-wrapper '__setattr__' of exceptions.NameError object>"
p15
sS'__reduce_ex__'
p16
S'<built-in method __reduce_ex__ of exceptions.NameError object>'
p17
sS'__getslice__'
p18
S"<method-wrapper '__getslice__' of exceptions.NameError object>"
p19
sS'__getitem__'
p20
S"<method-wrapper '__getitem__' of exceptions.NameError object>"
p21
sS'__setstate__'
p22
S'<built-in method __setstate__ of exceptions.NameError object>'
p23
sS'__reduce__'
p24
S'<built-in method __reduce__ of exceptions.NameError object>'
p25
sS'__str__'
p26
S"<method-wrapper '__str__' of exceptions.NameError object>"
p27
sS'__format__'
p28
S'<built-in method __format__ of exceptions.NameError object>'
p29
sS'__getattribute__'
p30
S"<method-wrapper '__getattribute__' of exceptions.NameError object>"
p31
sS'__class__'
p32
S"<type 'exceptions.NameError'>"
p33
sS'__unicode__'
p34
S'<built-in method __unicode__ of exceptions.NameError object>'
p35
sS'__delattr__'
p36
S"<method-wrapper '__delattr__' of exceptions.NameError object>"
p37
sS'__subclasshook__'
p38
S'<built-in method __subclasshook__ of type object>'
p39
sS'__repr__'
p40
S"<method-wrapper '__repr__' of exceptions.NameError object>"
p41
sS'args'
p42
S'("name \'SEO\' is not defined",)'
p43
sS'__dict__'
p44
S'{}'
p45
sS'__sizeof__'
p46
S'<built-in method __sizeof__ of exceptions.NameError object>'
p47
sS'__doc__'
p48
S"'Name not found globally.'"
p49
sS'__init__'
p50
S"<method-wrapper '__init__' of exceptions.NameError object>"
p51
sS'__new__'
p52
S'<built-in method __new__ of type object>'
p53
ssS'evalue'
p54
S"name 'SEO' is not defined"
p55
sS'request'
p56
cgluon.html
XML_unpickle
p57
(S's\xadQ\x00\x00<div><table><tr><td style="font-weight:bold;vertical-align:top">ajax</td><td valign="top">:</td><td><div>False</div></td></tr><tr><td style="font-weight:bold;vertical-align:top">application</td><td valign="top">:</td><td><div>SpeakInQuotes</div></td></tr><tr><td style="font-weight:bold;vertical-align:top">args</td><td valign="top">:</td><td><div><table></table></div></td></tr><tr><td style="font-weight:bold;vertical-align:top">body</td><td valign="top">:</td><td><div>&lt;cStringIO.StringO object at 0x06CFC4A0&gt;</div></td></tr><tr><td style="font-weight:bold;vertical-align:top">cid</td><td valign="top">:</td><td><div>None</div></td></tr><tr><td style="font-weight:bold;vertical-align:top">client</td><td valign="top">:</td><td><div>127.0.0.1</div></td></tr><tr><td style="font-weight:bold;vertical-align:top">controller</td><td valign="top">:</td><td><div>home</div></td></tr><tr><td style="font-weight:bold;vertical-align:top">cookies</td><td valign="top">:</td><td><div><table><tr><td style="font-weight:bold;vertical-align:top">session_id_admin</td><td valign="top">:</td><td><div>127.0.0.1-9c1ada99-670e-4f5a-ac5b-0996c7e5e827<table><tr><td style="font-weight:bold;vertical-align:top">comment</td><td valign="top">:</td><td><div></div></td></tr><tr><td style="font-weight:bold;vertical-align:top">domain</td><td valign="top">:</td><td><div></div></td></tr><tr><td style="font-weight:bold;vertical-align:top">expires</td><td valign="top">:</td><td><div></div></td></tr><tr><td style="font-weight:bold;vertical-align:top">httponly</td><td valign="top">:</td><td><div></div></td></tr><tr><td style="font-weight:bold;vertical-align:top">max-age</td><td valign="top">:</td><td><div></div></td></tr><tr><td style="font-weight:bold;vertical-align:top">path</td><td valign="top">:</td><td><div></div></td></tr><tr><td style="font-weight:bold;vertical-align:top">secure</td><td valign="top">:</td><td><div></div></td></tr><tr><td style="font-weight:bold;vertical-align:top">version</td><td valign="top">:</td><td><div></div></td></tr></table></div></td></tr><tr><td style="font-weight:bold;vertical-align:top">session_id_speakinquotes</td><td valign="top">:</td><td><div>127.0.0.1-794028bc-ca20-41bc-a245-49728e387ec8<table><tr><td style="font-weight:bold;vertical-align:top">comment</td><td valign="top">:</td><td><div></div></td></tr><tr><td style="font-weight:bold;vertical-align:top">domain</td><td valign="top">:</td><td><div></div></td></tr><tr><td style="font-weight:bold;vertical-align:top">expires</td><td valign="top">:</td><td><div></div></td></tr><tr><td style="font-weight:bold;vertical-align:top">httponly</td><td valign="top">:</td><td><div></div></td></tr><tr><td style="font-weight:bold;vertical-align:top">max-age</td><td valign="top">:</td><td><div></div></td></tr><tr><td style="font-weight:bold;vertical-align:top">path</td><td valign="top">:</td><td><div></div></td></tr><tr><td style="font-weight:bold;vertical-align:top">secure</td><td valign="top">:</td><td><div></div></td></tr><tr><td style="font-weight:bold;vertical-align:top">version</td><td valign="top">:</td><td><div></div></td></tr></table></div></td></tr></table></div></td></tr><tr><td style="font-weight:bold;vertical-align:top">env</td><td valign="top">:</td><td><div><table><tr><td style="font-weight:bold;vertical-align:top">app_folders</td><td valign="top">:</td><td><div>set([&#x27;E:\\\\projects\\\\Repos\\\\speakinquotes\\\\web2py\\\\applications\\\\SpeakInQuotes\\\\&#x27;, &#x27;E:\\\\projects\\\\Repos\\\\speakinquotes\\\\web2py\\\\applications\\\\admin\\\\&#x27;])</div></td></tr><tr><td style="font-weight:bold;vertical-align:top">applications_parent</td><td valign="top">:</td><td><div>E:\\projects\\Repos\\speakinquotes\\web2py</div></td></tr><tr><td style="font-weight:bold;vertical-align:top">cmd_args</td><td valign="top">:</td><td><div><table></table></div></td></tr><tr><td style="font-weight:bold;vertical-align:top">cmd_options</td><td valign="top">:</td><td><div>&lt;Values at 0x2849418: {&#x27;verbose&#x27;: False, &#x27;ip&#x27;: &#x27;127.0.0.1&#x27;, &#x27;with_scheduler&#x27;: False, &#x27;ips&#x27;: [], &#x27;shutdown_timeout&#x27;: 5, &#x27;taskbar&#x27;: False, &#x27;with_coverage&#x27;: False, &#x27;port&#x27;: 8000, &#x27;maxthreads&#x27;: None, &#x27;softcron&#x27;: False, &#x27;server_name&#x27;: &#x27;Laptop&#x27;, &#x27;bpython&#x27;: False, &#x27;nogui&#x27;: False, &#x27;pid_filename&#x27;: &#x27;httpserver.pid&#x27;, &#x27;extcron&#x27;: False, &#x27;runcron&#x27;: False, &#x27;run_system_tests&#x27;: False, &#x27;test&#x27;: None, &#x27;folder&#x27;: &#x27;E:\\\\projects\\\\Repos\\\\speakinquotes\\\\web2py&#x27;, &#x27;config&#x27;: &#x27;&#x27;, &#x27;import_models&#x27;: False, &#x27;winservice&#x27;: &#x27;&#x27;, &#x27;shell&#x27;: None, &#x27;run&#x27;: &#x27;&#x27;, &#x27;log_filename&#x27;: &#x27;httpserver.log&#x27;, &#x27;debuglevel&#x27;: 30, &#x27;args&#x27;: [&#x27;&#x27;], &#x27;socket_timeout&#x27;: 5, &#x27;ssl_ca_certificate&#x27;: None, &#x27;scheduler&#x27;: None, &#x27;profiler_filename&#x27;: None, &#x27;ssl_private_key&#x27;: &#x27;&#x27;, &#x27;scheduler_groups&#x27;: None, &#x27;password&#x27;: &#x27;&lt;ask&gt;&#x27;, &#x27;request_queue_size&#x27;: 5, &#x27;ssl_certificate&#x27;: &#x27;&#x27;, &#x27;cronjob&#x27;: False, &#x27;numthreads&#x27;: None, &#x27;quiet&#x27;: False, &#x27;interfaces&#x27;: None, &#x27;minthreads&#x27;: None, &#x27;timeout&#x27;: 10, &#x27;plain&#x27;: False, &#x27;nobanner&#x27;: False}&gt;</div></td></tr><tr><td style="font-weight:bold;vertical-align:top">db_sessions</td><td valign="top">:</td><td><div>set([])</div></td></tr><tr><td style="font-weight:bold;vertical-align:top">debugging</td><td valign="top">:</td><td><div>False</div></td></tr><tr><td style="font-weight:bold;vertical-align:top">gluon_parent</td><td valign="top">:</td><td><div>E:\\projects\\Repos\\speakinquotes\\web2py</div></td></tr><tr><td style="font-weight:bold;vertical-align:top">http_accept</td><td valign="top">:</td><td><div>text/html, application/xhtml+xml, */*</div></td></tr><tr><td style="font-weight:bold;vertical-align:top">http_accept_encoding</td><td valign="top">:</td><td><div>gzip, deflate</div></td></tr><tr><td style="font-weight:bold;vertical-align:top">http_accept_language</td><td valign="top">:</td><td><div>en-US,en;q=0.8,ar-EG;q=0.5,ar;q=0.3</div></td></tr><tr><td style="font-weight:bold;vertical-align:top">http_connection</td><td valign="top">:</td><td><div>Keep-Alive</div></td></tr><tr><td style="font-weight:bold;vertical-align:top">http_cookie</td><td valign="top">:</td><td><div>session_id_speakinquotes=127.0.0.1-794028bc-ca20-41bc-a245-49728e387ec8; session_id_admin=127.0.0.1-9c1ada99-670e-4f5a-ac5b-0996c7e5e827</div></td></tr><tr><td style="font-weight:bold;vertical-align:top">http_dnt</td><td valign="top">:</td><td><div>1</div></td></tr><tr><td style="font-weight:bold;vertical-align:top">http_host</td><td valign="top">:</td><td><div>127.0.0.1:8000</div></td></tr><tr><td style="font-weight:bold;vertical-align:top">http_user_agent</td><td valign="top">:</td><td><div>Mozilla/5.0 (compatible; MSIE 10.0; Windows NT 6.2; Trident/6.0)</div></td></tr><tr><td style="font-weight:bold;vertical-align:top">is_jython</td><td valign="top">:</td><td><div>False</div></td></tr><tr><td style="font-weight:bold;vertical-align:top">is_pypy</td><td valign="top">:</td><td><div>False</div></td></tr><tr><td style="font-weight:bold;vertical-align:top">local_hosts</td><td valign="top">:</td><td><div><table><tr><td><div>Laptop</div></td></tr><tr><td><div>::ffff:127.0.0.1</div></td></tr><tr><td><div>::1</div></td></tr><tr><td><div>192.168.1.2</div></td></tr><tr><td><div>2001:0:9d38:6ab8:489:7fd:3adf:51f6</div></td></tr><tr><td><div>Laptop.localdomain</div></td></tr><tr><td><div>fe80::6dea:134e:e68d:1aab%21</div></td></tr><tr><td><div>fe80::489:7fd:3adf:51f6%13</div></td></tr><tr><td><div>127.0.0.1</div></td></tr></table></div></td></tr><tr><td style="font-weight:bold;vertical-align:top">path_info</td><td valign="top">:</td><td><div>/SpeakInQuotes/home/index</div></td></tr><tr><td style="font-weight:bold;vertical-align:top">query_string</td><td valign="top">:</td><td><div></div></td></tr><tr><td style="font-weight:bold;vertical-align:top">remote_addr</td><td valign="top">:</td><td><div>127.0.0.1</div></td></tr><tr><td style="font-weight:bold;vertical-align:top">remote_port</td><td valign="top">:</td><td><div>54726</div></td></tr><tr><td style="font-weight:bold;vertical-align:top">request_method</td><td valign="top">:</td><td><div>GET</div></td></tr><tr><td style="font-weight:bold;vertical-align:top">request_uri</td><td valign="top">:</td><td><div>/SpeakInQuotes/home/index</div></td></tr><tr><td style="font-weight:bold;vertical-align:top">script_name</td><td valign="top">:</td><td><div></div></td></tr><tr><td style="font-weight:bold;vertical-align:top">server_name</td><td valign="top">:</td><td><div>Laptop</div></td></tr><tr><td style="font-weight:bold;vertical-align:top">server_port</td><td valign="top">:</td><td><div>8000</div></td></tr><tr><td style="font-weight:bold;vertical-align:top">server_protocol</td><td valign="top">:</td><td><div>HTTP/1.1</div></td></tr><tr><td style="font-weight:bold;vertical-align:top">server_software</td><td valign="top">:</td><td><div>Rocket 1.2.6</div></td></tr><tr><td style="font-weight:bold;vertical-align:top">web2py_original_uri</td><td valign="top">:</td><td><div>/SpeakInQuotes/home/index</div></td></tr><tr><td style="font-weight:bold;vertical-align:top">web2py_path</td><td valign="top">:</td><td><div>E:\\projects\\Repos\\speakinquotes\\web2py</div></td></tr><tr><td style="font-weight:bold;vertical-align:top">web2py_version</td><td valign="top">:</td><td><div>2.4.7-stable+timestamp.2013.05.24.17.48.47</div></td></tr><tr><td style="font-weight:bold;vertical-align:top">wsgi_errors</td><td valign="top">:</td><td><div>&lt;open file &#x27;&lt;stderr&gt;&#x27;, mode &#x27;w&#x27; at 0x012E50D0&gt;</div></td></tr><tr><td style="font-weight:bold;vertical-align:top">wsgi_file_wrapper</td><td valign="top">:</td><td><div>&lt;class wsgiref.util.FileWrapper at 0x02803730&gt;</div></td></tr><tr><td style="font-weight:bold;vertical-align:top">wsgi_input</td><td valign="top">:</td><td><div>&lt;socket._fileobject object at 0x02C589B0&gt;</div></td></tr><tr><td style="font-weight:bold;vertical-align:top">wsgi_multiprocess</td><td valign="top">:</td><td><div>False</div></td></tr><tr><td style="font-weight:bold;vertical-align:top">wsgi_multithread</td><td valign="top">:</td><td><div>True</div></td></tr><tr><td style="font-weight:bold;vertical-align:top">wsgi_run_once</td><td valign="top">:</td><td><div>False</div></td></tr><tr><td style="font-weight:bold;vertical-align:top">wsgi_url_scheme</td><td valign="top">:</td><td><div>http</div></td></tr><tr><td style="font-weight:bold;vertical-align:top">wsgi_version</td><td valign="top">:</td><td><div><table><tr><td><div>1</div></td></tr><tr><td><div>0</div></td></tr></table></div></td></tr></table></div></td></tr><tr><td style="font-weight:bold;vertical-align:top">extension</td><td valign="top">:</td><td><div>html</div></td></tr><tr><td style="font-weight:bold;vertical-align:top">folder</td><td valign="top">:</td><td><div>E:\\projects\\Repos\\speakinquotes\\web2py\\applications\\SpeakInQuotes\\</div></td></tr><tr><td style="font-weight:bold;vertical-align:top">function</td><td valign="top">:</td><td><div>index</div></td></tr><tr><td style="font-weight:bold;vertical-align:top">get_vars</td><td valign="top">:</td><td><div><table></table></div></td></tr><tr><td style="font-weight:bold;vertical-align:top">global_settings</td><td valign="top">:</td><td><div><table><tr><td style="font-weight:bold;vertical-align:top">app_folders</td><td valign="top">:</td><td><div>set([&#x27;E:\\\\projects\\\\Repos\\\\speakinquotes\\\\web2py\\\\applications\\\\SpeakInQuotes\\\\&#x27;, &#x27;E:\\\\projects\\\\Repos\\\\speakinquotes\\\\web2py\\\\applications\\\\admin\\\\&#x27;])</div></td></tr><tr><td style="font-weight:bold;vertical-align:top">applications_parent</td><td valign="top">:</td><td><div>E:\\projects\\Repos\\speakinquotes\\web2py</div></td></tr><tr><td style="font-weight:bold;vertical-align:top">cmd_args</td><td valign="top">:</td><td><div><table></table></div></td></tr><tr><td style="font-weight:bold;vertical-align:top">cmd_options</td><td valign="top">:</td><td><div>&lt;Values at 0x2849418: {&#x27;verbose&#x27;: False, &#x27;ip&#x27;: &#x27;127.0.0.1&#x27;, &#x27;with_scheduler&#x27;: False, &#x27;ips&#x27;: [], &#x27;shutdown_timeout&#x27;: 5, &#x27;taskbar&#x27;: False, &#x27;with_coverage&#x27;: False, &#x27;port&#x27;: 8000, &#x27;maxthreads&#x27;: None, &#x27;softcron&#x27;: False, &#x27;server_name&#x27;: &#x27;Laptop&#x27;, &#x27;bpython&#x27;: False, &#x27;nogui&#x27;: False, &#x27;pid_filename&#x27;: &#x27;httpserver.pid&#x27;, &#x27;extcron&#x27;: False, &#x27;runcron&#x27;: False, &#x27;run_system_tests&#x27;: False, &#x27;test&#x27;: None, &#x27;folder&#x27;: &#x27;E:\\\\projects\\\\Repos\\\\speakinquotes\\\\web2py&#x27;, &#x27;config&#x27;: &#x27;&#x27;, &#x27;import_models&#x27;: False, &#x27;winservice&#x27;: &#x27;&#x27;, &#x27;shell&#x27;: None, &#x27;run&#x27;: &#x27;&#x27;, &#x27;log_filename&#x27;: &#x27;httpserver.log&#x27;, &#x27;debuglevel&#x27;: 30, &#x27;args&#x27;: [&#x27;&#x27;], &#x27;socket_timeout&#x27;: 5, &#x27;ssl_ca_certificate&#x27;: None, &#x27;scheduler&#x27;: None, &#x27;profiler_filename&#x27;: None, &#x27;ssl_private_key&#x27;: &#x27;&#x27;, &#x27;scheduler_groups&#x27;: None, &#x27;password&#x27;: &#x27;&lt;ask&gt;&#x27;, &#x27;request_queue_size&#x27;: 5, &#x27;ssl_certificate&#x27;: &#x27;&#x27;, &#x27;cronjob&#x27;: False, &#x27;numthreads&#x27;: None, &#x27;quiet&#x27;: False, &#x27;interfaces&#x27;: None, &#x27;minthreads&#x27;: None, &#x27;timeout&#x27;: 10, &#x27;plain&#x27;: False, &#x27;nobanner&#x27;: False}&gt;</div></td></tr><tr><td style="font-weight:bold;vertical-align:top">db_sessions</td><td valign="top">:</td><td><div>set([])</div></td></tr><tr><td style="font-weight:bold;vertical-align:top">debugging</td><td valign="top">:</td><td><div>False</div></td></tr><tr><td style="font-weight:bold;vertical-align:top">gluon_parent</td><td valign="top">:</td><td><div>E:\\projects\\Repos\\speakinquotes\\web2py</div></td></tr><tr><td style="font-weight:bold;vertical-align:top">is_jython</td><td valign="top">:</td><td><div>False</div></td></tr><tr><td style="font-weight:bold;vertical-align:top">is_pypy</td><td valign="top">:</td><td><div>False</div></td></tr><tr><td style="font-weight:bold;vertical-align:top">local_hosts</td><td valign="top">:</td><td><div><table><tr><td><div>Laptop</div></td></tr><tr><td><div>::ffff:127.0.0.1</div></td></tr><tr><td><div>::1</div></td></tr><tr><td><div>192.168.1.2</div></td></tr><tr><td><div>2001:0:9d38:6ab8:489:7fd:3adf:51f6</div></td></tr><tr><td><div>Laptop.localdomain</div></td></tr><tr><td><div>fe80::6dea:134e:e68d:1aab%21</div></td></tr><tr><td><div>fe80::489:7fd:3adf:51f6%13</div></td></tr><tr><td><div>127.0.0.1</div></td></tr></table></div></td></tr><tr><td style="font-weight:bold;vertical-align:top">web2py_version</td><td valign="top">:</td><td><div>2.4.7-stable+timestamp.2013.05.24.17.48.47</div></td></tr></table></div></td></tr><tr><td style="font-weight:bold;vertical-align:top">is_https</td><td valign="top">:</td><td><div>False</div></td></tr><tr><td style="font-weight:bold;vertical-align:top">is_local</td><td valign="top">:</td><td><div>True</div></td></tr><tr><td style="font-weight:bold;vertical-align:top">is_restful</td><td valign="top">:</td><td><div>False</div></td></tr><tr><td style="font-weight:bold;vertical-align:top">now</td><td valign="top">:</td><td><div>datetime.datetime(2013, 6, 9, 16, 8, 23, 716000)</div></td></tr><tr><td style="font-weight:bold;vertical-align:top">post_vars</td><td valign="top">:</td><td><div><table></table></div></td></tr><tr><td style="font-weight:bold;vertical-align:top">raw_args</td><td valign="top">:</td><td><div></div></td></tr><tr><td style="font-weight:bold;vertical-align:top">raw_extension</td><td valign="top">:</td><td><div>None</div></td></tr><tr><td style="font-weight:bold;vertical-align:top">url</td><td valign="top">:</td><td><div>/SpeakInQuotes/home/index</div></td></tr><tr><td style="font-weight:bold;vertical-align:top">utcnow</td><td valign="top">:</td><td><div>datetime.datetime(2013, 6, 9, 14, 8, 23, 716000)</div></td></tr><tr><td style="font-weight:bold;vertical-align:top">uuid</td><td valign="top">:</td><td><div>SpeakInQuotes/127.0.0.1.2013-06-09.16-08-23.cdcf0302-7830-4458-9869-551f2b46a204</div></td></tr><tr><td style="font-weight:bold;vertical-align:top">vars</td><td valign="top">:</td><td><div><table></table></div></td></tr><tr><td style="font-weight:bold;vertical-align:top">wsgi</td><td valign="top">:</td><td><div><table><tr><td style="font-weight:bold;vertical-align:top">environ</td><td valign="top">:</td><td><div><table><tr><td style="font-weight:bold;vertical-align:top">HTTP_ACCEPT</td><td valign="top">:</td><td><div>text/html, application/xhtml+xml, */*</div></td></tr><tr><td style="font-weight:bold;vertical-align:top">HTTP_ACCEPT_ENCODING</td><td valign="top">:</td><td><div>gzip, deflate</div></td></tr><tr><td style="font-weight:bold;vertical-align:top">HTTP_ACCEPT_LANGUAGE</td><td valign="top">:</td><td><div>en-US,en;q=0.8,ar-EG;q=0.5,ar;q=0.3</div></td></tr><tr><td style="font-weight:bold;vertical-align:top">HTTP_CONNECTION</td><td valign="top">:</td><td><div>Keep-Alive</div></td></tr><tr><td style="font-weight:bold;vertical-align:top">HTTP_COOKIE</td><td valign="top">:</td><td><div>session_id_speakinquotes=127.0.0.1-794028bc-ca20-41bc-a245-49728e387ec8; session_id_admin=127.0.0.1-9c1ada99-670e-4f5a-ac5b-0996c7e5e827</div></td></tr><tr><td style="font-weight:bold;vertical-align:top">HTTP_DNT</td><td valign="top">:</td><td><div>1</div></td></tr><tr><td style="font-weight:bold;vertical-align:top">HTTP_HOST</td><td valign="top">:</td><td><div>127.0.0.1:8000</div></td></tr><tr><td style="font-weight:bold;vertical-align:top">HTTP_USER_AGENT</td><td valign="top">:</td><td><div>Mozilla/5.0 (compatible; MSIE 10.0; Windows NT 6.2; Trident/6.0)</div></td></tr><tr><td style="font-weight:bold;vertical-align:top">PATH_INFO</td><td valign="top">:</td><td><div>/SpeakInQuotes/home/index</div></td></tr><tr><td style="font-weight:bold;vertical-align:top">QUERY_STRING</td><td valign="top">:</td><td><div></div></td></tr><tr><td style="font-weight:bold;vertical-align:top">REMOTE_ADDR</td><td valign="top">:</td><td><div>127.0.0.1</div></td></tr><tr><td style="font-weight:bold;vertical-align:top">REMOTE_PORT</td><td valign="top">:</td><td><div>54726</div></td></tr><tr><td style="font-weight:bold;vertical-align:top">REQUEST_METHOD</td><td valign="top">:</td><td><div>GET</div></td></tr><tr><td style="font-weight:bold;vertical-align:top">REQUEST_URI</td><td valign="top">:</td><td><div>/SpeakInQuotes/home/index</div></td></tr><tr><td style="font-weight:bold;vertical-align:top">SCRIPT_NAME</td><td valign="top">:</td><td><div></div></td></tr><tr><td style="font-weight:bold;vertical-align:top">SERVER_NAME</td><td valign="top">:</td><td><div>Laptop</div></td></tr><tr><td style="font-weight:bold;vertical-align:top">SERVER_PORT</td><td valign="top">:</td><td><div>8000</div></td></tr><tr><td style="font-weight:bold;vertical-align:top">SERVER_PROTOCOL</td><td valign="top">:</td><td><div>HTTP/1.1</div></td></tr><tr><td style="font-weight:bold;vertical-align:top">SERVER_SOFTWARE</td><td valign="top">:</td><td><div>Rocket 1.2.6</div></td></tr><tr><td style="font-weight:bold;vertical-align:top">WEB2PY_ORIGINAL_URI</td><td valign="top">:</td><td><div>/SpeakInQuotes/home/index</div></td></tr><tr><td style="font-weight:bold;vertical-align:top">wsgi.errors</td><td valign="top">:</td><td><div>&lt;open file &#x27;&lt;stderr&gt;&#x27;, mode &#x27;w&#x27; at 0x012E50D0&gt;</div></td></tr><tr><td style="font-weight:bold;vertical-align:top">wsgi.file_wrapper</td><td valign="top">:</td><td><div>&lt;class wsgiref.util.FileWrapper at 0x02803730&gt;</div></td></tr><tr><td style="font-weight:bold;vertical-align:top">wsgi.input</td><td valign="top">:</td><td><div>&lt;cStringIO.StringO object at 0x06CFC4A0&gt;</div></td></tr><tr><td style="font-weight:bold;vertical-align:top">wsgi.multiprocess</td><td valign="top">:</td><td><div>False</div></td></tr><tr><td style="font-weight:bold;vertical-align:top">wsgi.multithread</td><td valign="top">:</td><td><div>True</div></td></tr><tr><td style="font-weight:bold;vertical-align:top">wsgi.run_once</td><td valign="top">:</td><td><div>False</div></td></tr><tr><td style="font-weight:bold;vertical-align:top">wsgi.url_scheme</td><td valign="top">:</td><td><div>http</div></td></tr><tr><td style="font-weight:bold;vertical-align:top">wsgi.version</td><td valign="top">:</td><td><div>1</div></td></tr></table></div></td></tr></table></div></td></tr></table></div>'
tRp58
sS'frames'
p59
(lp60
(dp61
S'file'
p62
S'E:\\projects\\Repos\\speakinquotes\\web2py\\gluon\\restricted.py'
p63
sS'dump'
p64
(dp65
S'environment'
p66
S"{'A': <class 'gluon.html.A'>, 'ANY_OF': <class 'gluon.validators.ANY_OF'>, 'Auth': <class 'gluon.tools.Auth'>, 'B': <class 'gluon.html.B'>, 'BEAUTIFY': <class 'gluon.html.BEAUTIFY'>, 'BODY': <class 'gluon.html.BODY'>, 'BR': <class 'gluon.html.BR'>, 'BUTTON': <class 'gluon.html.BUTTON'>, 'CAT': <class 'gluon.html.CAT'>, 'CENTER': <class 'gluon.html.CENTER'>, ...}"
p67
sS'ccode'
p68
S'<code object <module> at 02C72EC0, file "E:\\proj...ons\\SpeakInQuotes\\views\\home/index.html", line 1>'
p69
ssS'lnum'
p70
I212
sS'lines'
p71
(dp72
I207
S'    try:'
p73
sI208
S'        if isinstance(code, types.CodeType):'
p74
sI209
S'            ccode = code'
p75
sI210
S'        else:'
p76
sI211
S'            ccode = compile2(code, layer)'
p77
sI212
S'        exec ccode in environment'
p78
sI213
S'    except HTTP:'
p79
sI214
S'        raise'
p80
sI215
S'    except RestrictedError:'
p81
sI216
S'        # do not encapsulate (obfuscate) the original RestrictedError'
p82
ssS'call'
p83
S'(code=\'left_sidebar_enabled,right_sidebar_enabled=True,..."></script>\\\\n</body>\\\\n</html>\\\\n\\\\n\\\', escape=False)\', environment={\'A\': <class \'gluon.html.A\'>, \'ANY_OF\': <class \'gluon.validators.ANY_OF\'>, \'Auth\': <class \'gluon.tools.Auth\'>, \'B\': <class \'gluon.html.B\'>, \'BEAUTIFY\': <class \'gluon.html.BEAUTIFY\'>, \'BODY\': <class \'gluon.html.BODY\'>, \'BR\': <class \'gluon.html.BR\'>, \'BUTTON\': <class \'gluon.html.BUTTON\'>, \'CAT\': <class \'gluon.html.CAT\'>, \'CENTER\': <class \'gluon.html.CENTER\'>, ...}, layer=r\'E:\\projects\\Repos\\speakinquotes\\web2py\\applications\\SpeakInQuotes\\views\\home/index.html\')'
p84
sS'func'
p85
S'restricted'
p86
sa(dp87
g62
S'E:\\projects\\Repos\\speakinquotes\\web2py\\applications\\SpeakInQuotes\\views\\home\\index.html'
p88
sg64
(dp89
S'style'
p90
S'undefined'
p91
ssg70
I18
sg71
(dp92
I9
S'response.write(\'"> <![endif]-->\\n<!--[if IE 9]><html class="ie9 ie-lte9 no-js" lang="\', escape=False)'
p93
sI10
S"response.write(T.accepted_language or 'en')"
p94
sI11
S'response.write(\'"> <![endif]-->\\n<!--[if (gt IE 9)|!(IE)]><!--> <html class="no-js" lang="\', escape=False)'
p95
sI12
S"response.write(T.accepted_language or 'en')"
p96
sI13
S'response.write(\'"> <!--<![endif]-->\\n<head>\\n<title>\', escape=False)'
p97
sI14
S'response.write(response.title or request.application)'
p98
sI15
S'response.write(\'</title>\\n  <!--[if !HTML5]>\\n      <meta http-equiv="X-UA-Compatible" content="IE=edge\', escape=False)'
p99
sI16
S"response.write(not request.is_local and ',chrome=1' or '')"
p100
sI17
S'response.write(\'">\\n  <![endif]-->\\n  <!-- www.phpied.com/conditional-comments-block-downloads/ -->\\n  <!-- Always force latest IE rendering engine\\n       (even in intranet) & Chrome Frame\\n       Remove this if you use the .htaccess -->\\n\', escape=False)'
p101
sI18
S"SEO(title='SpeakInQuotes', description='SpeakInQuotes allows you to express your feelings using quotes and connects you with other people who love quotes', author='Moustafa Mahmoud Fathy')"
p102
sI19
S'response.write(\'\\t   \\n  <meta charset="utf-8" />\\n\\n  <!-- http://dev.w3.org/html5/markup/meta.name.html -->\\n  <meta name="application-name" content="\', escape=False)'
p103
sI20
S'response.write(request.application)'
p104
sI21
S'response.write(\'" />\\n\\n  <!-- Speaking of Google, don\\\'t forget to set your site up:\\n       http://google.com/webmasters -->\\n  <meta name="google-site-verification" content="" />\\n\\n  <!--  Mobile Viewport Fix\\n        j.mp/mobileviewport & davidbcalhoun.com/2010/viewport-metatag\\n        device-width: Occupy full width of the screen in its current orientation\\n        initial-scale = 1.0 retains dimensions instead of zooming out if page height > device height\\n        user-scalable = yes allows the user to zoom in -->\\n  <meta name="viewport" content="width=device-width, initial-scale=1.0" />\\n\\n  <link rel="shortcut icon" href="\', escape=False)'
p105
sI22
S"response.write(URL('static','images/favicon.ico'))"
p106
sI23
S'response.write(\'" type="image/x-icon">\\n  <link rel="apple-touch-icon" href="\', escape=False)'
p107
sI24
S"response.write(URL('static','images/favicon.png'))"
p108
sI25
S'response.write(\'">\\n\\n  <!-- All JavaScript at the bottom, except for Modernizr which enables\\n       HTML5 elements & feature detects -->\\n  <script src="\', escape=False)'
p109
sI26
S"response.write(URL('static','js/modernizr.custom.js'))"
p110
sI27
S'response.write(\'"></script>\\n\\n  <!-- include stylesheets -->\\n  \', escape=False)'
p111
sI28
S"response.files.append(URL('static','css/web2py.css'))"
p112
ssg83
S'()'
p113
sg85
S'<module>'
p114
sasS'pyver'
p115
S'Python 2.7.2: C:\\Python27\\python.exe (prefix: C:\\Python27)'
p116
sS'session'
p117
g57
(S's\xd9\t\x00\x00<div><table><tr><td style="font-weight:bold;vertical-align:top">auth</td><td valign="top">:</td><td><div><table><tr><td style="font-weight:bold;vertical-align:top">expiration</td><td valign="top">:</td><td><div>3600</div></td></tr><tr><td style="font-weight:bold;vertical-align:top">hmac_key</td><td valign="top">:</td><td><div>283e5be3-678e-40bb-ace7-f2fe4695217d</div></td></tr><tr><td style="font-weight:bold;vertical-align:top">last_visit</td><td valign="top">:</td><td><div>datetime.datetime(2013, 6, 9, 16, 5, 40, 436000)</div></td></tr><tr><td style="font-weight:bold;vertical-align:top">remember</td><td valign="top">:</td><td><div>False</div></td></tr><tr><td style="font-weight:bold;vertical-align:top">user</td><td valign="top">:</td><td><div><table><tr><td style="font-weight:bold;vertical-align:top">dob</td><td valign="top">:</td><td><div>datetime.date(2013, 6, 11)</div></td></tr><tr><td style="font-weight:bold;vertical-align:top">email</td><td valign="top">:</td><td><div>digital_ninja01@hotmail.com</div></td></tr><tr><td style="font-weight:bold;vertical-align:top">first_name</td><td valign="top">:</td><td><div>Moustafa</div></td></tr><tr><td style="font-weight:bold;vertical-align:top">gender</td><td valign="top">:</td><td><div>Male</div></td></tr><tr><td style="font-weight:bold;vertical-align:top">id</td><td valign="top">:</td><td><div>3L</div></td></tr><tr><td style="font-weight:bold;vertical-align:top">last_name</td><td valign="top">:</td><td><div>Mahmoud</div></td></tr><tr><td style="font-weight:bold;vertical-align:top">profile_picture</td><td valign="top">:</td><td><div></div></td></tr><tr><td style="font-weight:bold;vertical-align:top">registration_id</td><td valign="top">:</td><td><div></div></td></tr><tr><td style="font-weight:bold;vertical-align:top">registration_key</td><td valign="top">:</td><td><div></div></td></tr><tr><td style="font-weight:bold;vertical-align:top">reset_password_key</td><td valign="top">:</td><td><div></div></td></tr><tr><td style="font-weight:bold;vertical-align:top">username</td><td valign="top">:</td><td><div>tifa</div></td></tr></table></div></td></tr><tr><td style="font-weight:bold;vertical-align:top">user_groups</td><td valign="top">:</td><td><div><table><tr><td style="font-weight:bold;vertical-align:top">3</td><td valign="top">:</td><td><div>manager</div></td></tr></table></div></td></tr></table></div></td></tr><tr><td style="font-weight:bold;vertical-align:top">flash</td><td valign="top">:</td><td><div>None</div></td></tr></table></div>'
tRp118
sS'etype'
p119
S"<type 'exceptions.NameError'>"
p120
sS'date'
p121
S'Sun Jun 09 16:08:23 2013'
p122
sS'response'
p123
g57
(S's\x04\x1a\x00\x00<div><table><tr><td style="font-weight:bold;vertical-align:top">body</td><td valign="top">:</td><td><div>&lt;cStringIO.StringO object at 0x02C7A3C0&gt;</div></td></tr><tr><td style="font-weight:bold;vertical-align:top">cookies</td><td valign="top">:</td><td><div><table><tr><td style="font-weight:bold;vertical-align:top">session_id_speakinquotes</td><td valign="top">:</td><td><div>127.0.0.1-794028bc-ca20-41bc-a245-49728e387ec8<table><tr><td style="font-weight:bold;vertical-align:top">comment</td><td valign="top">:</td><td><div></div></td></tr><tr><td style="font-weight:bold;vertical-align:top">domain</td><td valign="top">:</td><td><div></div></td></tr><tr><td style="font-weight:bold;vertical-align:top">expires</td><td valign="top">:</td><td><div></div></td></tr><tr><td style="font-weight:bold;vertical-align:top">httponly</td><td valign="top">:</td><td><div></div></td></tr><tr><td style="font-weight:bold;vertical-align:top">max-age</td><td valign="top">:</td><td><div></div></td></tr><tr><td style="font-weight:bold;vertical-align:top">path</td><td valign="top">:</td><td><div>/</div></td></tr><tr><td style="font-weight:bold;vertical-align:top">secure</td><td valign="top">:</td><td><div></div></td></tr><tr><td style="font-weight:bold;vertical-align:top">version</td><td valign="top">:</td><td><div></div></td></tr></table></div></td></tr></table></div></td></tr><tr><td style="font-weight:bold;vertical-align:top">delimiters</td><td valign="top">:</td><td><div><table><tr><td><div>{{</div></td></tr><tr><td><div>}}</div></td></tr></table></div></td></tr><tr><td style="font-weight:bold;vertical-align:top">files</td><td valign="top">:</td><td><div><table></table></div></td></tr><tr><td style="font-weight:bold;vertical-align:top">flash</td><td valign="top">:</td><td><div></div></td></tr><tr><td style="font-weight:bold;vertical-align:top">generic_patterns</td><td valign="top">:</td><td><div><table><tr><td><div>*</div></td></tr></table></div></td></tr><tr><td style="font-weight:bold;vertical-align:top">google_analytics_id</td><td valign="top">:</td><td><div>None</div></td></tr><tr><td style="font-weight:bold;vertical-align:top">headers</td><td valign="top">:</td><td><div><table><tr><td style="font-weight:bold;vertical-align:top">X-Powered-By</td><td valign="top">:</td><td><div>web2py</div></td></tr></table></div></td></tr><tr><td style="font-weight:bold;vertical-align:top">logo</td><td valign="top">:</td><td><div><a class="brand" href="/SpeakInQuotes/default/index"><b>SpeakInQuotes</b></a></div></td></tr><tr><td style="font-weight:bold;vertical-align:top">menu</td><td valign="top">:</td><td><div><table><tr><td><div><table><tr><td><div>Home</div></td></tr><tr><td><div>False</div></td></tr><tr><td><div>/SpeakInQuotes/default/index</div></td></tr></table></div></td></tr><tr><td><div><table><tr><td><div>Profile</div></td></tr><tr><td><div>False</div></td></tr><tr><td><div>/SpeakInQuotes/profile/index/3</div></td></tr></table></div></td></tr><tr><td><div><table><tr><td><div>Famous &amp; Historical Quotes</div></td></tr><tr><td><div>False</div></td></tr><tr><td><div>/SpeakInQuotes/quotes/famous</div></td></tr></table></div></td></tr><tr><td><div><table><tr><td><div>User Quotes</div></td></tr><tr><td><div>False</div></td></tr><tr><td><div>/SpeakInQuotes/quotes/user</div></td></tr></table></div></td></tr><tr><td><div><table><tr><td><div>My Quotes</div></td></tr><tr><td><div>False</div></td></tr><tr><td><div>/SpeakInQuotes/myquotes/index</div></td></tr></table></div></td></tr><tr><td><div><table><tr><td><div>My Connections</div></td></tr><tr><td><div>False</div></td></tr><tr><td><div>/SpeakInQuotes/connections/index</div></td></tr></table></div></td></tr></table></div></td></tr><tr><td style="font-weight:bold;vertical-align:top">meta</td><td valign="top">:</td><td><div><table><tr><td style="font-weight:bold;vertical-align:top">author</td><td valign="top">:</td><td><div>Moustafa Mahmoud &lt;Moustafa.Mahmoud.Fathy@outlook.com&gt;</div></td></tr><tr><td style="font-weight:bold;vertical-align:top">description</td><td valign="top">:</td><td><div>SpeakInQuotes allows you to express your feelings using quotes and connects you with other people who love quotes</div></td></tr></table></div></td></tr><tr><td style="font-weight:bold;vertical-align:top">models_to_run</td><td valign="top">:</td><td><div><table><tr><td><div>^\\w+\\.py$</div></td></tr><tr><td><div>^home/\\w+\\.py$</div></td></tr><tr><td><div>^home/index/\\w+\\.py$</div></td></tr></table></div></td></tr><tr><td style="font-weight:bold;vertical-align:top">postprocessing</td><td valign="top">:</td><td><div><table></table></div></td></tr><tr><td style="font-weight:bold;vertical-align:top">session_cookie_expires</td><td valign="top">:</td><td><div>None</div></td></tr><tr><td style="font-weight:bold;vertical-align:top">session_data_name</td><td valign="top">:</td><td><div>session_data_speakinquotes</div></td></tr><tr><td style="font-weight:bold;vertical-align:top">session_file</td><td valign="top">:</td><td><div>&lt;open file &#x27;E:\\projects\\Repos\\speakinquotes\\web2py\\applications\\SpeakInQuotes\\sessions\\127.0.0.1-794028bc-ca20-41bc-a245-49728e387ec8&#x27;, mode &#x27;rb+&#x27; at 0x06A96C80&gt;</div></td></tr><tr><td style="font-weight:bold;vertical-align:top">session_filename</td><td valign="top">:</td><td><div>E:\\projects\\Repos\\speakinquotes\\web2py\\applications\\SpeakInQuotes\\sessions\\127.0.0.1-794028bc-ca20-41bc-a245-49728e387ec8</div></td></tr><tr><td style="font-weight:bold;vertical-align:top">session_id</td><td valign="top">:</td><td><div>127.0.0.1-794028bc-ca20-41bc-a245-49728e387ec8</div></td></tr><tr><td style="font-weight:bold;vertical-align:top">session_id_name</td><td valign="top">:</td><td><div>session_id_speakinquotes</div></td></tr><tr><td style="font-weight:bold;vertical-align:top">session_locked</td><td valign="top">:</td><td><div>True</div></td></tr><tr><td style="font-weight:bold;vertical-align:top">session_new</td><td valign="top">:</td><td><div>False</div></td></tr><tr><td style="font-weight:bold;vertical-align:top">session_storage_type</td><td valign="top">:</td><td><div>file</div></td></tr><tr><td style="font-weight:bold;vertical-align:top">status</td><td valign="top">:</td><td><div>200</div></td></tr><tr><td style="font-weight:bold;vertical-align:top">subtitle</td><td valign="top">:</td><td><div>The Quotes Sharing Network!</div></td></tr><tr><td style="font-weight:bold;vertical-align:top">title</td><td valign="top">:</td><td><div>SpeakInQuotes</div></td></tr><tr><td style="font-weight:bold;vertical-align:top">view</td><td valign="top">:</td><td><div>home/index.html</div></td></tr></table></div>'
tRp124
sS'locals'
p125
(dp126
S'myfollowers'
p127
S"{1L: {'id': 1L, 'origin': 2L, 'requested_on': '2013-06-10 21:11:27', 'target': 3L}, 2L: {'id': 2L, 'origin': 4L, 'requested_on': None, 'target': 3L}, 3L: {'id': 3L, 'origin': 5L, 'requested_on': None, 'target': 3L}, 4L: {'id': 4L, 'origin': 2L, 'requested_on': None, 'target': 3L}, 5L: {'id': 5L, 'origin': 6L, 'requested_on': None, 'target': 3L}, 6L: {'id': 6L, 'origin': 6L, 'requested_on': None, 'target': 3L}, 19L: {'id': 19L, 'origin': 3L, 'requested_on': '2013-06-18 22:41:50', 'target': 3L}}"
p128
sS'Service'
p129
S"<class 'gluon.tools.Service'>"
p130
sS'OBJECT'
p131
S"<class 'gluon.html.OBJECT'>"
p132
sS'SQLDB'
p133
S"<class 'gluon.dal.DAL'>"
p134
sg117
S"<Storage {'_formkey[login]': 'c6bb0bc5-d8ff-45ee...otmail.com'}>, 'user_groups': {3L: 'manager'}}>}>"
p135
sS'LINK'
p136
S"<class 'gluon.html.LINK'>"
p137
sS'BR'
p138
S"<class 'gluon.html.BR'>"
p139
sS'local_import'
p140
S'<function <lambda>>'
p141
sS'OPTGROUP'
p142
S"<class 'gluon.html.OPTGROUP'>"
p143
sS'__package__'
p144
S'None'
p145
sS'redirect'
p146
S'<function redirect>'
p147
sS'IS_INT_IN_RANGE'
p148
S"<class 'gluon.validators.IS_INT_IN_RANGE'>"
p149
sS'left_sidebar_enabled'
p150
S'True'
p151
sS'IS_LOWER'
p152
S"<class 'gluon.validators.IS_LOWER'>"
p153
sS'IS_STRONG'
p154
S"<class 'gluon.validators.IS_STRONG'>"
p155
sS'Recaptcha'
p156
S"<class 'gluon.tools.Recaptcha'>"
p157
sS'cache'
p158
S'<gluon.cache.Cache object>'
p159
sS'IS_IN_DB'
p160
S"<class 'gluon.validators.IS_IN_DB'>"
p161
sS'TAG'
p162
S'<gluon.html.__TAG__ object>'
p163
sS'SQLField'
p164
S"<class 'gluon.dal.Field'>"
p165
sS'mail'
p166
S'<gluon.tools.Mail object>'
p167
sS'BODY'
p168
S"<class 'gluon.html.BODY'>"
p169
sS'IS_DATE_IN_RANGE'
p170
S"<class 'gluon.validators.IS_DATE_IN_RANGE'>"
p171
sS'IFRAME'
p172
S"<class 'gluon.html.IFRAME'>"
p173
sS'URL'
p174
S'<function URL>'
p175
sS'__file__'
p176
S"r'E:\\projects\\Repos\\speakinquotes\\web2py\\applications\\SpeakInQuotes\\views\\home/index.html'"
p177
sS'db'
p178
S'<DAL uri="sqlite://storage.sqlite">'
p179
sS'auth'
p180
S'<gluon.tools.Auth object>'
p181
sS'NUM_FRIENDS_INPAGE'
p182
S'12'
p183
sS'P'
S"<class 'gluon.html.P'>"
p184
sS'TFOOT'
p185
S"<class 'gluon.html.TFOOT'>"
p186
sS'XHTML'
p187
S"<class 'gluon.html.XHTML'>"
p188
sS'categories'
p189
S"{1L: {'id': 1L, 'name': 'Relationships', 'ordernono': '1'}, 2L: {'id': 2L, 'name': 'Family & Friends', 'ordernono': '2'}, 3L: {'id': 3L, 'name': 'Health & Wellness', 'ordernono': '3'}, 4L: {'id': 4L, 'name': 'Culture', 'ordernono': '4'}, 5L: {'id': 5L, 'name': 'Community', 'ordernono': '5'}, 6L: {'id': 6L, 'name': 'Education', 'ordernono': '6'}, 7L: {'id': 7L, 'name': 'Arts', 'ordernono': '7'}, 8L: {'id': 8L, 'name': 'Habits', 'ordernono': '8'}}"
p190
sS'ON'
p191
g151
sS'OL'
p192
S"<class 'gluon.html.OL'>"
p193
sS'TEXTAREA'
p194
S"<class 'gluon.html.TEXTAREA'>"
p195
sS'MENU'
p196
S"<class 'gluon.html.MENU'>"
p197
sS'initial_subcategories'
p198
S"[{'category': '1', 'name': 'Affairs', 'orderno': '1'}, {'category': '1', 'name': 'Broken Hearts & Betrayal', 'orderno': '1'}, {'category': '1', 'name': 'Crushes & Obsessions', 'orderno': '1'}, {'category': '1', 'name': 'Divorce', 'orderno': '1'}, {'category': '1', 'name': 'First Love', 'orderno': '1'}, {'category': '1', 'name': 'Intimacy', 'orderno': '1'}, {'category': '1', 'name': 'Marriage', 'orderno': '1'}, {'category': '1', 'name': 'Romance & True Love', 'orderno': '1'}, {'category': '1', 'name': 'Struggles', 'orderno': '1'}, {'category': '2', 'name': 'Family Struggles', 'orderno': '1'}, {'category': '2', 'name': 'Fatherhood', 'orderno': '1'}, {'category': '2', 'name': 'Loss in the Family', 'orderno': '1'}, {'category': '2', 'name': 'Loss of a Child', 'orderno': '1'}, {'category': '2', 'name': 'Loss of a Friend', 'orderno': '1'}, {'category': '2', 'name': 'Loss of a Pet', 'orderno': '1'}, {'category': '2', 'name': 'Pets', 'orderno': '1'}, {'category': '2', 'name': 'Loneliness', 'orderno': '1'}, {'category': '3', 'name': 'Addiction', 'orderno': '1'}, {'category': '3', 'name': 'Suicide', 'orderno': '1'}, {'category': '3', 'name': 'Depression', 'orderno': '1'}, ...]"
p199
sS'STYLE'
p200
S"<class 'gluon.html.STYLE'>"
p201
sS'IS_IMAGE'
p202
S"<class 'gluon.validators.IS_IMAGE'>"
p203
sS'myfollowing'
p204
S"{15L: {'id': 15L, 'origin': 3L, 'requested_on': '2013-06-05 17:20:09', 'target': 2L}, 16L: {'id': 16L, 'origin': 3L, 'requested_on': '2013-06-08 22:40:57', 'target': 4L}, 17L: {'id': 17L, 'origin': 3L, 'requested_on': '2013-06-08 22:40:59', 'target': 5L}, 18L: {'id': 18L, 'origin': 3L, 'requested_on': '2013-06-08 22:41:02', 'target': 6L}, 19L: {'id': 19L, 'origin': 3L, 'requested_on': '2013-06-18 22:41:50', 'target': 3L}}"
p205
sS'EM'
p206
S"<class 'gluon.html.EM'>"
p207
sS'CODE'
p208
S"<class 'gluon.html.CODE'>"
p209
sS'HTTP'
p210
S"<class 'gluon.http.HTTP'>"
p211
sS'HR'
p212
S"<class 'gluon.html.HR'>"
p213
sS'IS_DATETIME'
p214
S"<class 'gluon.validators.IS_DATETIME'>"
p215
sS'NUM_QUOTES_INPAGE'
p216
S'10'
p217
sS'LABEL'
p218
S"<class 'gluon.html.LABEL'>"
p219
sS'CLEANUP'
p220
S"<class 'gluon.validators.CLEANUP'>"
p221
sS'plugins'
p222
S'<gluon.tools.PluginManager object>'
p223
sS'NOTIFICATION_TYPES'
p224
S"['new_quote', 'new_comment']"
p225
sS'SELECT'
p226
S"<class 'gluon.html.SELECT'>"
p227
sS'use_janrain'
p228
S'<function use_janrain>'
p229
sS'CENTER'
p230
S"<class 'gluon.html.CENTER'>"
p231
sS'prettydate'
p232
S'<function prettydate>'
p233
sS'Crud'
p234
S"<class 'gluon.tools.Crud'>"
p235
sS'Auth'
p236
S"<class 'gluon.tools.Auth'>"
p237
sS'DEVELOPMENT_MENU'
p238
S'False'
p239
sS'CascadingSelect'
p240
S"<class '__restricted__.CascadingSelect'>"
p241
sS'__builtins__'
p242
S"{'ArithmeticError': <type 'exceptions.ArithmeticError'>, 'AssertionError': <type 'exceptions.AssertionError'>, 'AttributeError': <type 'exceptions.AttributeError'>, 'BaseException': <type 'exceptions.BaseException'>, 'BufferError': <type 'exceptions.BufferError'>, 'BytesWarning': <type 'exceptions.BytesWarning'>, 'DeprecationWarning': <type 'exceptions.DeprecationWarning'>, 'EOFError': <type 'exceptions.EOFError'>, 'Ellipsis': Ellipsis, 'EnvironmentError': <type 'exceptions.EnvironmentError'>, ...}"
p243
sS'HTML'
p244
S"<class 'gluon.html.HTML'>"
p245
sS'SQLFORM'
p246
S"<class 'gluon.sqlhtml.SQLFORM'>"
p247
sS'LOAD'
p248
S'<function LOAD>'
p249
sS'PRE'
p250
S"<class 'gluon.html.PRE'>"
p251
sS'FIELDSET'
p252
S"<class 'gluon.html.FIELDSET'>"
p253
sS'IS_EQUAL_TO'
p254
S"<class 'gluon.validators.IS_EQUAL_TO'>"
p255
sS'get_category_picker'
p256
S'<function get_category_picker>'
p257
sS'embed64'
p258
S'<function embed64>'
p259
sS'IS_LIST_OF'
p260
S"<class 'gluon.validators.IS_LIST_OF'>"
p261
sS'__name__'
p262
S"'__restricted__'"
p263
sS'EMBED'
p264
S"<class 'gluon.html.EMBED'>"
p265
sS'IS_NOT_IN_DB'
p266
S"<class 'gluon.validators.IS_NOT_IN_DB'>"
p267
sS'H2'
p268
S"<class 'gluon.html.H2'>"
p269
sS'H3'
p270
S"<class 'gluon.html.H3'>"
p271
sS'BUTTON'
p272
S"<class 'gluon.html.BUTTON'>"
p273
sS'H1'
p274
S"<class 'gluon.html.H1'>"
p275
sS'H6'
p276
S"<class 'gluon.html.H6'>"
p277
sS'H4'
p278
S"<class 'gluon.html.H4'>"
p279
sS'H5'
p280
S"<class 'gluon.html.H5'>"
p281
sS'NUM_QUESTIONS_INPAGE'
p282
S'10'
p283
sS'IS_UPPER'
p284
S"<class 'gluon.validators.IS_UPPER'>"
p285
sS'xmlescape'
p286
S'<function xmlescape>'
p287
sS'IS_TIME'
p288
S"<class 'gluon.validators.IS_TIME'>"
p289
sS'get_quotes_comment_box'
p290
S'<function get_quotes_comment_box>'
p291
sS'OPTION'
p292
S"<class 'gluon.html.OPTION'>"
p293
sS'TITLE'
p294
S"<class 'gluon.html.TITLE'>"
p295
sS'DEFAULT'
p296
S'<function <lambda>>'
p297
sS'CRYPT'
p298
S"<class 'gluon.validators.CRYPT'>"
p299
sS'IS_EMPTY_OR'
p300
S"<class 'gluon.validators.IS_EMPTY_OR'>"
p301
sS'MARKMIN'
p302
S"<class 'gluon.html.MARKMIN'>"
p303
sS'INPUT'
p304
S"<class 'gluon.html.INPUT'>"
p305
sS'STRONG'
p306
S"<class 'gluon.html.STRONG'>"
p307
sS'COL'
p308
S"<class 'gluon.html.COL'>"
p309
sS'service'
p310
S'<gluon.tools.Service object>'
p311
sS'SCRIPT'
p312
S"<class 'gluon.html.SCRIPT'>"
p313
sS'initial_categories'
p314
S"[{'name': 'Relationships', 'ordernono': '1'}, {'name': 'Family & Friends', 'ordernono': '2'}, {'name': 'Health & Wellness', 'ordernono': '3'}, {'name': 'Culture', 'ordernono': '4'}, {'name': 'Community', 'ordernono': '5'}, {'name': 'Education', 'ordernono': '6'}, {'name': 'Arts', 'ordernono': '7'}, {'name': 'Habits', 'ordernono': '8'}]"
p315
sS'name_of'
p316
S'<function name_of>'
p317
sS'GENDER_SET'
p318
S"[<lazyT 'Male'>, <lazyT 'Female'>]"
p319
sS'TABLE'
p320
S"<class 'gluon.html.TABLE'>"
p321
sS'IS_IPV4'
p322
S"<class 'gluon.validators.IS_IPV4'>"
p323
sS'IS_LENGTH'
p324
S"<class 'gluon.validators.IS_LENGTH'>"
p325
sS'IS_IPV6'
p326
S"<class 'gluon.validators.IS_IPV6'>"
p327
sS'XML'
p328
S"<class 'gluon.html.XML'>"
p329
sS'NUM_NOTIFICATIOS_INPAGE'
p330
S'10'
p331
sS'B'
S"<class 'gluon.html.B'>"
p332
sS'IMG'
p333
S"<class 'gluon.html.IMG'>"
p334
sS'SQLTABLE'
p335
S"<class 'gluon.sqlhtml.SQLTABLE'>"
p336
sS'IS_MATCH'
p337
S"<class 'gluon.validators.IS_MATCH'>"
p338
sS'IS_ALPHANUMERIC'
p339
S"<class 'gluon.validators.IS_ALPHANUMERIC'>"
p340
sS'get_category_name'
p341
S'<function get_category_name>'
p342
sS'me'
p343
S'3L'
p344
sS'SPAN'
p345
S"<class 'gluon.html.SPAN'>"
p346
sS'IS_JSON'
p347
S"<class 'gluon.validators.IS_JSON'>"
p348
sS'IS_IPADDRESS'
p349
S"<class 'gluon.validators.IS_IPADDRESS'>"
p350
sS'IS_SLUG'
p351
S"<class 'gluon.validators.IS_SLUG'>"
p352
sS'BEAUTIFY'
p353
S"<class 'gluon.html.BEAUTIFY'>"
p354
sS'META'
p355
S"<class 'gluon.html.META'>"
p356
sS'get_quotes_search_form'
p357
S'<function get_quotes_search_form>'
p358
sS'IS_DATE'
p359
S"<class 'gluon.validators.IS_DATE'>"
p360
sS'IS_EMAIL'
p361
S"<class 'gluon.validators.IS_EMAIL'>"
p362
sS'IS_NOT_EMPTY'
p363
S"<class 'gluon.validators.IS_NOT_EMPTY'>"
p364
sS'IS_FLOAT_IN_RANGE'
p365
S"<class 'gluon.validators.IS_FLOAT_IN_RANGE'>"
p366
sS'TBODY'
p367
S"<class 'gluon.html.TBODY'>"
p368
sS'CAT'
p369
S"<class 'gluon.html.CAT'>"
p370
sS'Field'
p371
S"<class 'gluon.dal.Field'>"
p372
sS'DIV'
p373
S"<class 'gluon.html.DIV'>"
p374
sS'LEGEND'
p375
S"<class 'gluon.html.LEGEND'>"
p376
sS'UL'
p377
S"<class 'gluon.html.UL'>"
p378
sS'DAL'
p379
S"<class 'gluon.dal.DAL'>"
p380
sS'TT'
p381
S"<class 'gluon.html.TT'>"
p382
sS'TR'
p383
S"<class 'gluon.html.TR'>"
p384
sS'LI'
p385
S"<class 'gluon.html.LI'>"
p386
sS'right_sidebar_enabled'
p387
g239
sS'TH'
p388
S"<class 'gluon.html.TH'>"
p389
sS'TD'
p390
S"<class 'gluon.html.TD'>"
p391
sS'PluginManager'
p392
S"<class 'gluon.tools.PluginManager'>"
p393
sS'IS_URL'
p394
S"<class 'gluon.validators.IS_URL'>"
p395
sS'A'
S"<class 'gluon.html.A'>"
p396
sS'HEAD'
p397
S"<class 'gluon.html.HEAD'>"
p398
sS'IS_DATETIME_IN_RANGE'
p399
S"<class 'gluon.validators.IS_DATETIME_IN_RANGE'>"
p400
sS'FORM'
p401
S"<class 'gluon.html.FORM'>"
p402
sS'I'
S"<class 'gluon.html.I'>"
p403
sS'crud'
p404
S'<gluon.tools.Crud object>'
p405
sS'a1'
p406
S'None'
p407
sS'a0'
p408
S'None'
p409
sS'a2'
p410
S'None'
p411
sS'newnavbar'
p412
S'<function newnavbar>'
p413
sg123
S"<Storage {'body': <cStringIO.StringO object at 0...mbda> at 0x06A75E70>, 'view': 'home/index.html'}>"
p414
sS'THEAD'
p415
S"<class 'gluon.html.THEAD'>"
p416
sS'ANY_OF'
p417
S"<class 'gluon.validators.ANY_OF'>"
p418
sS'IS_NULL_OR'
p419
S"<class 'gluon.validators.IS_EMPTY_OR'>"
p420
sS'quoteofday'
p421
S'<Rows (1)>'
p422
sS'COLGROUP'
p423
S"<class 'gluon.html.COLGROUP'>"
p424
sg56
S"<Storage {'function': 'index', 'body': <cStringI...ns\\\\SpeakInQuotes\\\\', 'post_vars': <Storage {}>}>"
p425
sS'IS_EXPR'
p426
S"<class 'gluon.validators.IS_EXPR'>"
p427
sS'T'
S'<gluon.languages.translator object>'
p428
sS'cascade'
p429
S'<__restricted__.CascadingSelect object>'
p430
sS'IS_IN_SET'
p431
S"<class 'gluon.validators.IS_IN_SET'>"
p432
sS'IS_UPLOAD_FILENAME'
p433
S"<class 'gluon.validators.IS_UPLOAD_FILENAME'>"
p434
sS'pretty_date'
p435
S'<function pretty_date>'
p436
sS're'
p437
S"<module 're' from 'C:\\Python27\\lib\\re.pyc'>"
p438
sS'IS_DECIMAL_IN_RANGE'
p439
S"<class 'gluon.validators.IS_DECIMAL_IN_RANGE'>"
p440
sssS'traceback'
p441
S'Traceback (most recent call last):\n  File "E:\\projects\\Repos\\speakinquotes\\web2py\\gluon\\restricted.py", line 212, in restricted\n    exec ccode in environment\n  File "E:\\projects\\Repos\\speakinquotes\\web2py\\applications\\SpeakInQuotes\\views\\home/index.html", line 18, in <module>\nNameError: name \'SEO\' is not defined\n'
p442
s.