(dp1
S'output'
p2
S"<type 'exceptions.AttributeError'> 'NoneType' object has no attribute '_adapter'"
p3
sS'layer'
p4
S'E:\\projects\\Repos\\speakinquotes\\web2py\\applications\\SpeakInQuotes\\controllers/connections.py'
p5
sS'code'
p6
S'# -*- coding: utf-8 -*-\n# this file is released under public domain and you can use without limitations\n\n#########################################################################\n## This is a samples controller\n## - index is the default action of any application\n## - user is required for authentication and authorization\n## - download is for downloading files uploaded in the db (does streaming)\n## - call exposes all registered services (none by default)\n#########################################################################\n\n\n\n@auth.requires_login()    \ndef index():\n\tresponse.title=T("Manage Your Connections")\n\tresponse.subtitle=T("Manage Your Followings and Followers")\n\tuser_search_box = SQLFORM.factory(Field(\'search_key\',notnull=True,label="Please Enter Username / Email"))\n\tif user_search_box.process().accepted:\n\t\tredirect(URL(\'connections\',\'search\',args=user_search_box.vars.search_key))\n\t\t\n\treturn locals()\n\n\n@auth.requires_login()    \ndef search():\n\tif len(request.args)==0: redirect(URL(\'connections\',\'index\'))\n\tresponse.title=T("Search Users")\n\tresponse.subtitle=T("find your friends on SpeakInQuotes")\n\tuser_search_box = get_user_search_form()\n\tif user_search_box.process().accepted:\n\t\tredirect(URL(\'connections\',\'search\',args=user_search_box.vars.search_key))\n\t\t\n\tif len(request.args)>0:\n\t\trows=  db((db.auth_user.email==request.args[0])).select().as_dict()\n\t\titems_per_page=NUM_FRIENDS_INPAGE\n\t\tif not rows:\n\t\t\trows = db((db.auth_user.username==request.args[0])).select().as_dict()\n\treturn dict(Connections=rows,items_per_page=items_per_page,user_search_box=user_search_box)\n\t\n\t\n@auth.requires_login()\ndef List_Followers():\n    if len(request.args)>1: \n\t\tpage=int(request.args[1])\n    else: page=0\n    items_per_page=NUM_FRIENDS_INPAGE\n    limitby=(page*items_per_page,(page+1)*items_per_page+1)\n    rows = db((db.link.target==me)).select(limitby=limitby, orderby=~db.link.requested_on).as_dict()\n    return dict(Connections=rows,page=page,items_per_page=items_per_page)\n\n\n@auth.requires_login()\ndef List_Following():\n    if len(request.args)>1: \n\t\tpage=int(request.args[1])\n    else: page=0\n    items_per_page=NUM_FRIENDS_INPAGE\n    limitby=(page*items_per_page,(page+1)*items_per_page+1)\n    rows = db((db.link.origin==me)).select(limitby=limitby, orderby=~db.link.requested_on).as_dict()\n    return dict(Connections=rows,page=page,items_per_page=items_per_page)\n\n\nresponse._vars=response._caller(search)\n'
p7
sS'snapshot'
p8
(dp9
S'exception'
p10
(dp11
S'__hash__'
p12
S"<method-wrapper '__hash__' of exceptions.AttributeError object>"
p13
sS'__setattr__'
p14
S"<method-wrapper '__setattr__' of exceptions.AttributeError object>"
p15
sS'__reduce_ex__'
p16
S'<built-in method __reduce_ex__ of exceptions.AttributeError object>'
p17
sS'__getslice__'
p18
S"<method-wrapper '__getslice__' of exceptions.AttributeError object>"
p19
sS'__getitem__'
p20
S"<method-wrapper '__getitem__' of exceptions.AttributeError object>"
p21
sS'__setstate__'
p22
S'<built-in method __setstate__ of exceptions.AttributeError object>'
p23
sS'__reduce__'
p24
S'<built-in method __reduce__ of exceptions.AttributeError object>'
p25
sS'__str__'
p26
S"<method-wrapper '__str__' of exceptions.AttributeError object>"
p27
sS'__format__'
p28
S'<built-in method __format__ of exceptions.AttributeError object>'
p29
sS'__getattribute__'
p30
S"<method-wrapper '__getattribute__' of exceptions.AttributeError object>"
p31
sS'__class__'
p32
S"<type 'exceptions.AttributeError'>"
p33
sS'__unicode__'
p34
S'<built-in method __unicode__ of exceptions.AttributeError object>'
p35
sS'__delattr__'
p36
S"<method-wrapper '__delattr__' of exceptions.AttributeError object>"
p37
sS'__subclasshook__'
p38
S'<built-in method __subclasshook__ of type object>'
p39
sS'__repr__'
p40
S"<method-wrapper '__repr__' of exceptions.AttributeError object>"
p41
sS'args'
p42
S'("\'NoneType\' object has no attribute \'_adapter\'",)'
p43
sS'__dict__'
p44
S'{}'
p45
sS'__sizeof__'
p46
S'<built-in method __sizeof__ of exceptions.AttributeError object>'
p47
sS'__doc__'
p48
S"'Attribute not found.'"
p49
sS'__init__'
p50
S"<method-wrapper '__init__' of exceptions.AttributeError object>"
p51
sS'__new__'
p52
S'<built-in method __new__ of type object>'
p53
ssS'evalue'
p54
S"'NoneType' object has no attribute '_adapter'"
p55
sS'request'
p56
cgluon.html
XML_unpickle
p57
(S's;[\x00\x00<div><table><tr><td style="font-weight:bold;vertical-align:top">ajax</td><td valign="top">:</td><td><div>False</div></td></tr><tr><td style="font-weight:bold;vertical-align:top">application</td><td valign="top">:</td><td><div>SpeakInQuotes</div></td></tr><tr><td style="font-weight:bold;vertical-align:top">args</td><td valign="top">:</td><td><div><table><tr><td><div>tifa</div></td></tr></table></div></td></tr><tr><td style="font-weight:bold;vertical-align:top">body</td><td valign="top">:</td><td><div>&lt;open file &#x27;&lt;fdopen&gt;&#x27;, mode &#x27;w+b&#x27; at 0x06F01078&gt;</div></td></tr><tr><td style="font-weight:bold;vertical-align:top">cid</td><td valign="top">:</td><td><div>None</div></td></tr><tr><td style="font-weight:bold;vertical-align:top">client</td><td valign="top">:</td><td><div>127.0.0.1</div></td></tr><tr><td style="font-weight:bold;vertical-align:top">controller</td><td valign="top">:</td><td><div>connections</div></td></tr><tr><td style="font-weight:bold;vertical-align:top">cookies</td><td valign="top">:</td><td><div><table><tr><td style="font-weight:bold;vertical-align:top">session_id_admin</td><td valign="top">:</td><td><div>127.0.0.1-d83be33e-83ee-4344-b2fd-11c044f9de6c<table><tr><td style="font-weight:bold;vertical-align:top">comment</td><td valign="top">:</td><td><div></div></td></tr><tr><td style="font-weight:bold;vertical-align:top">domain</td><td valign="top">:</td><td><div></div></td></tr><tr><td style="font-weight:bold;vertical-align:top">expires</td><td valign="top">:</td><td><div></div></td></tr><tr><td style="font-weight:bold;vertical-align:top">httponly</td><td valign="top">:</td><td><div></div></td></tr><tr><td style="font-weight:bold;vertical-align:top">max-age</td><td valign="top">:</td><td><div></div></td></tr><tr><td style="font-weight:bold;vertical-align:top">path</td><td valign="top">:</td><td><div></div></td></tr><tr><td style="font-weight:bold;vertical-align:top">secure</td><td valign="top">:</td><td><div></div></td></tr><tr><td style="font-weight:bold;vertical-align:top">version</td><td valign="top">:</td><td><div></div></td></tr></table></div></td></tr><tr><td style="font-weight:bold;vertical-align:top">session_id_speakinquotes</td><td valign="top">:</td><td><div>127.0.0.1-af4a0ad5-6754-44d9-9ca8-6e25140866e5<table><tr><td style="font-weight:bold;vertical-align:top">comment</td><td valign="top">:</td><td><div></div></td></tr><tr><td style="font-weight:bold;vertical-align:top">domain</td><td valign="top">:</td><td><div></div></td></tr><tr><td style="font-weight:bold;vertical-align:top">expires</td><td valign="top">:</td><td><div></div></td></tr><tr><td style="font-weight:bold;vertical-align:top">httponly</td><td valign="top">:</td><td><div></div></td></tr><tr><td style="font-weight:bold;vertical-align:top">max-age</td><td valign="top">:</td><td><div></div></td></tr><tr><td style="font-weight:bold;vertical-align:top">path</td><td valign="top">:</td><td><div></div></td></tr><tr><td style="font-weight:bold;vertical-align:top">secure</td><td valign="top">:</td><td><div></div></td></tr><tr><td style="font-weight:bold;vertical-align:top">version</td><td valign="top">:</td><td><div></div></td></tr></table></div></td></tr></table></div></td></tr><tr><td style="font-weight:bold;vertical-align:top">env</td><td valign="top">:</td><td><div><table><tr><td style="font-weight:bold;vertical-align:top">app_folders</td><td valign="top">:</td><td><div>set([&#x27;E:\\\\projects\\\\Repos\\\\speakinquotes\\\\web2py\\\\applications\\\\SpeakInQuotes\\\\&#x27;, &#x27;E:\\\\projects\\\\Repos\\\\speakinquotes\\\\web2py\\\\applications\\\\admin\\\\&#x27;])</div></td></tr><tr><td style="font-weight:bold;vertical-align:top">applications_parent</td><td valign="top">:</td><td><div>E:\\projects\\Repos\\speakinquotes\\web2py</div></td></tr><tr><td style="font-weight:bold;vertical-align:top">cmd_args</td><td valign="top">:</td><td><div><table></table></div></td></tr><tr><td style="font-weight:bold;vertical-align:top">cmd_options</td><td valign="top">:</td><td><div>&lt;Values at 0x2879418: {&#x27;verbose&#x27;: False, &#x27;ip&#x27;: &#x27;127.0.0.1&#x27;, &#x27;with_scheduler&#x27;: False, &#x27;ips&#x27;: [], &#x27;shutdown_timeout&#x27;: 5, &#x27;taskbar&#x27;: False, &#x27;with_coverage&#x27;: False, &#x27;port&#x27;: 8000, &#x27;maxthreads&#x27;: None, &#x27;softcron&#x27;: False, &#x27;server_name&#x27;: &#x27;Laptop&#x27;, &#x27;bpython&#x27;: False, &#x27;nogui&#x27;: False, &#x27;pid_filename&#x27;: &#x27;httpserver.pid&#x27;, &#x27;extcron&#x27;: False, &#x27;runcron&#x27;: False, &#x27;run_system_tests&#x27;: False, &#x27;test&#x27;: None, &#x27;folder&#x27;: &#x27;E:\\\\projects\\\\Repos\\\\speakinquotes\\\\web2py&#x27;, &#x27;config&#x27;: &#x27;&#x27;, &#x27;import_models&#x27;: False, &#x27;winservice&#x27;: &#x27;&#x27;, &#x27;shell&#x27;: None, &#x27;run&#x27;: &#x27;&#x27;, &#x27;log_filename&#x27;: &#x27;httpserver.log&#x27;, &#x27;debuglevel&#x27;: 30, &#x27;args&#x27;: [&#x27;&#x27;], &#x27;socket_timeout&#x27;: 5, &#x27;ssl_ca_certificate&#x27;: None, &#x27;scheduler&#x27;: None, &#x27;profiler_filename&#x27;: None, &#x27;ssl_private_key&#x27;: &#x27;&#x27;, &#x27;scheduler_groups&#x27;: None, &#x27;password&#x27;: &#x27;&lt;ask&gt;&#x27;, &#x27;request_queue_size&#x27;: 5, &#x27;ssl_certificate&#x27;: &#x27;&#x27;, &#x27;cronjob&#x27;: False, &#x27;numthreads&#x27;: None, &#x27;quiet&#x27;: False, &#x27;interfaces&#x27;: None, &#x27;minthreads&#x27;: None, &#x27;timeout&#x27;: 10, &#x27;plain&#x27;: False, &#x27;nobanner&#x27;: False}&gt;</div></td></tr><tr><td style="font-weight:bold;vertical-align:top">content_length</td><td valign="top">:</td><td><div>383</div></td></tr><tr><td style="font-weight:bold;vertical-align:top">content_type</td><td valign="top">:</td><td><div>multipart/form-data; boundary=----WebKitFormBoundaryEE0APfk9J08OwFtp</div></td></tr><tr><td style="font-weight:bold;vertical-align:top">db_sessions</td><td valign="top">:</td><td><div>set([])</div></td></tr><tr><td style="font-weight:bold;vertical-align:top">debugging</td><td valign="top">:</td><td><div>False</div></td></tr><tr><td style="font-weight:bold;vertical-align:top">gluon_parent</td><td valign="top">:</td><td><div>E:\\projects\\Repos\\speakinquotes\\web2py</div></td></tr><tr><td style="font-weight:bold;vertical-align:top">http_accept</td><td valign="top">:</td><td><div>text/html,application/xhtml+xml,application/xml;q=0.9,*/*;q=0.8</div></td></tr><tr><td style="font-weight:bold;vertical-align:top">http_accept_encoding</td><td valign="top">:</td><td><div>gzip,deflate,sdch</div></td></tr><tr><td style="font-weight:bold;vertical-align:top">http_accept_language</td><td valign="top">:</td><td><div>en-US,en;q=0.8</div></td></tr><tr><td style="font-weight:bold;vertical-align:top">http_cache_control</td><td valign="top">:</td><td><div>max-age=0</div></td></tr><tr><td style="font-weight:bold;vertical-align:top">http_connection</td><td valign="top">:</td><td><div>keep-alive</div></td></tr><tr><td style="font-weight:bold;vertical-align:top">http_content_length</td><td valign="top">:</td><td><div>383</div></td></tr><tr><td style="font-weight:bold;vertical-align:top">http_content_type</td><td valign="top">:</td><td><div>multipart/form-data; boundary=----WebKitFormBoundaryEE0APfk9J08OwFtp</div></td></tr><tr><td style="font-weight:bold;vertical-align:top">http_cookie</td><td valign="top">:</td><td><div>session_id_admin=127.0.0.1-d83be33e-83ee-4344-b2fd-11c044f9de6c; session_id_speakinquotes=127.0.0.1-af4a0ad5-6754-44d9-9ca8-6e25140866e5</div></td></tr><tr><td style="font-weight:bold;vertical-align:top">http_host</td><td valign="top">:</td><td><div>127.0.0.1:8000</div></td></tr><tr><td style="font-weight:bold;vertical-align:top">http_origin</td><td valign="top">:</td><td><div>http://127.0.0.1:8000</div></td></tr><tr><td style="font-weight:bold;vertical-align:top">http_referer</td><td valign="top">:</td><td><div>http://127.0.0.1:8000/SpeakInQuotes/connections/search/tifa</div></td></tr><tr><td style="font-weight:bold;vertical-align:top">http_user_agent</td><td valign="top">:</td><td><div>Mozilla/5.0 (Windows NT 6.2) AppleWebKit/537.36 (KHTML, like Gecko) Chrome/27.0.1453.110 Safari/537.36</div></td></tr><tr><td style="font-weight:bold;vertical-align:top">is_jython</td><td valign="top">:</td><td><div>False</div></td></tr><tr><td style="font-weight:bold;vertical-align:top">is_pypy</td><td valign="top">:</td><td><div>False</div></td></tr><tr><td style="font-weight:bold;vertical-align:top">local_hosts</td><td valign="top">:</td><td><div><table><tr><td><div>Laptop</div></td></tr><tr><td><div>::ffff:127.0.0.1</div></td></tr><tr><td><div>::1</div></td></tr><tr><td><div>fe80::cfa:261f:3adf:5853%13</div></td></tr><tr><td><div>192.168.1.2</div></td></tr><tr><td><div>2001:0:5ef5:79fd:cfa:261f:3adf:5853</div></td></tr><tr><td><div>Laptop.localdomain</div></td></tr><tr><td><div>fe80::6dea:134e:e68d:1aab%21</div></td></tr><tr><td><div>127.0.0.1</div></td></tr></table></div></td></tr><tr><td style="font-weight:bold;vertical-align:top">path_info</td><td valign="top">:</td><td><div>/SpeakInQuotes/connections/search/tifa</div></td></tr><tr><td style="font-weight:bold;vertical-align:top">query_string</td><td valign="top">:</td><td><div></div></td></tr><tr><td style="font-weight:bold;vertical-align:top">remote_addr</td><td valign="top">:</td><td><div>127.0.0.1</div></td></tr><tr><td style="font-weight:bold;vertical-align:top">remote_port</td><td valign="top">:</td><td><div>63189</div></td></tr><tr><td style="font-weight:bold;vertical-align:top">request_method</td><td valign="top">:</td><td><div>POST</div></td></tr><tr><td style="font-weight:bold;vertical-align:top">request_uri</td><td valign="top">:</td><td><div>/SpeakInQuotes/connections/search/tifa</div></td></tr><tr><td style="font-weight:bold;vertical-align:top">script_name</td><td valign="top">:</td><td><div></div></td></tr><tr><td style="font-weight:bold;vertical-align:top">server_name</td><td valign="top">:</td><td><div>Laptop</div></td></tr><tr><td style="font-weight:bold;vertical-align:top">server_port</td><td valign="top">:</td><td><div>8000</div></td></tr><tr><td style="font-weight:bold;vertical-align:top">server_protocol</td><td valign="top">:</td><td><div>HTTP/1.1</div></td></tr><tr><td style="font-weight:bold;vertical-align:top">server_software</td><td valign="top">:</td><td><div>Rocket 1.2.6</div></td></tr><tr><td style="font-weight:bold;vertical-align:top">web2py_original_uri</td><td valign="top">:</td><td><div>/SpeakInQuotes/connections/search/tifa</div></td></tr><tr><td style="font-weight:bold;vertical-align:top">web2py_path</td><td valign="top">:</td><td><div>E:\\projects\\Repos\\speakinquotes\\web2py</div></td></tr><tr><td style="font-weight:bold;vertical-align:top">web2py_version</td><td valign="top">:</td><td><div>2.4.7-stable+timestamp.2013.05.24.17.48.47</div></td></tr><tr><td style="font-weight:bold;vertical-align:top">wsgi_errors</td><td valign="top">:</td><td><div>&lt;open file &#x27;&lt;stderr&gt;&#x27;, mode &#x27;w&#x27; at 0x012C50D0&gt;</div></td></tr><tr><td style="font-weight:bold;vertical-align:top">wsgi_file_wrapper</td><td valign="top">:</td><td><div>&lt;class wsgiref.util.FileWrapper at 0x02833730&gt;</div></td></tr><tr><td style="font-weight:bold;vertical-align:top">wsgi_input</td><td valign="top">:</td><td><div>&lt;socket._fileobject object at 0x077FE470&gt;</div></td></tr><tr><td style="font-weight:bold;vertical-align:top">wsgi_multiprocess</td><td valign="top">:</td><td><div>False</div></td></tr><tr><td style="font-weight:bold;vertical-align:top">wsgi_multithread</td><td valign="top">:</td><td><div>True</div></td></tr><tr><td style="font-weight:bold;vertical-align:top">wsgi_run_once</td><td valign="top">:</td><td><div>False</div></td></tr><tr><td style="font-weight:bold;vertical-align:top">wsgi_url_scheme</td><td valign="top">:</td><td><div>http</div></td></tr><tr><td style="font-weight:bold;vertical-align:top">wsgi_version</td><td valign="top">:</td><td><div><table><tr><td><div>1</div></td></tr><tr><td><div>0</div></td></tr></table></div></td></tr></table></div></td></tr><tr><td style="font-weight:bold;vertical-align:top">extension</td><td valign="top">:</td><td><div>html</div></td></tr><tr><td style="font-weight:bold;vertical-align:top">folder</td><td valign="top">:</td><td><div>E:\\projects\\Repos\\speakinquotes\\web2py\\applications\\SpeakInQuotes\\</div></td></tr><tr><td style="font-weight:bold;vertical-align:top">function</td><td valign="top">:</td><td><div>search</div></td></tr><tr><td style="font-weight:bold;vertical-align:top">get_vars</td><td valign="top">:</td><td><div><table></table></div></td></tr><tr><td style="font-weight:bold;vertical-align:top">global_settings</td><td valign="top">:</td><td><div><table><tr><td style="font-weight:bold;vertical-align:top">app_folders</td><td valign="top">:</td><td><div>set([&#x27;E:\\\\projects\\\\Repos\\\\speakinquotes\\\\web2py\\\\applications\\\\SpeakInQuotes\\\\&#x27;, &#x27;E:\\\\projects\\\\Repos\\\\speakinquotes\\\\web2py\\\\applications\\\\admin\\\\&#x27;])</div></td></tr><tr><td style="font-weight:bold;vertical-align:top">applications_parent</td><td valign="top">:</td><td><div>E:\\projects\\Repos\\speakinquotes\\web2py</div></td></tr><tr><td style="font-weight:bold;vertical-align:top">cmd_args</td><td valign="top">:</td><td><div><table></table></div></td></tr><tr><td style="font-weight:bold;vertical-align:top">cmd_options</td><td valign="top">:</td><td><div>&lt;Values at 0x2879418: {&#x27;verbose&#x27;: False, &#x27;ip&#x27;: &#x27;127.0.0.1&#x27;, &#x27;with_scheduler&#x27;: False, &#x27;ips&#x27;: [], &#x27;shutdown_timeout&#x27;: 5, &#x27;taskbar&#x27;: False, &#x27;with_coverage&#x27;: False, &#x27;port&#x27;: 8000, &#x27;maxthreads&#x27;: None, &#x27;softcron&#x27;: False, &#x27;server_name&#x27;: &#x27;Laptop&#x27;, &#x27;bpython&#x27;: False, &#x27;nogui&#x27;: False, &#x27;pid_filename&#x27;: &#x27;httpserver.pid&#x27;, &#x27;extcron&#x27;: False, &#x27;runcron&#x27;: False, &#x27;run_system_tests&#x27;: False, &#x27;test&#x27;: None, &#x27;folder&#x27;: &#x27;E:\\\\projects\\\\Repos\\\\speakinquotes\\\\web2py&#x27;, &#x27;config&#x27;: &#x27;&#x27;, &#x27;import_models&#x27;: False, &#x27;winservice&#x27;: &#x27;&#x27;, &#x27;shell&#x27;: None, &#x27;run&#x27;: &#x27;&#x27;, &#x27;log_filename&#x27;: &#x27;httpserver.log&#x27;, &#x27;debuglevel&#x27;: 30, &#x27;args&#x27;: [&#x27;&#x27;], &#x27;socket_timeout&#x27;: 5, &#x27;ssl_ca_certificate&#x27;: None, &#x27;scheduler&#x27;: None, &#x27;profiler_filename&#x27;: None, &#x27;ssl_private_key&#x27;: &#x27;&#x27;, &#x27;scheduler_groups&#x27;: None, &#x27;password&#x27;: &#x27;&lt;ask&gt;&#x27;, &#x27;request_queue_size&#x27;: 5, &#x27;ssl_certificate&#x27;: &#x27;&#x27;, &#x27;cronjob&#x27;: False, &#x27;numthreads&#x27;: None, &#x27;quiet&#x27;: False, &#x27;interfaces&#x27;: None, &#x27;minthreads&#x27;: None, &#x27;timeout&#x27;: 10, &#x27;plain&#x27;: False, &#x27;nobanner&#x27;: False}&gt;</div></td></tr><tr><td style="font-weight:bold;vertical-align:top">db_sessions</td><td valign="top">:</td><td><div>set([])</div></td></tr><tr><td style="font-weight:bold;vertical-align:top">debugging</td><td valign="top">:</td><td><div>False</div></td></tr><tr><td style="font-weight:bold;vertical-align:top">gluon_parent</td><td valign="top">:</td><td><div>E:\\projects\\Repos\\speakinquotes\\web2py</div></td></tr><tr><td style="font-weight:bold;vertical-align:top">is_jython</td><td valign="top">:</td><td><div>False</div></td></tr><tr><td style="font-weight:bold;vertical-align:top">is_pypy</td><td valign="top">:</td><td><div>False</div></td></tr><tr><td style="font-weight:bold;vertical-align:top">local_hosts</td><td valign="top">:</td><td><div><table><tr><td><div>Laptop</div></td></tr><tr><td><div>::ffff:127.0.0.1</div></td></tr><tr><td><div>::1</div></td></tr><tr><td><div>fe80::cfa:261f:3adf:5853%13</div></td></tr><tr><td><div>192.168.1.2</div></td></tr><tr><td><div>2001:0:5ef5:79fd:cfa:261f:3adf:5853</div></td></tr><tr><td><div>Laptop.localdomain</div></td></tr><tr><td><div>fe80::6dea:134e:e68d:1aab%21</div></td></tr><tr><td><div>127.0.0.1</div></td></tr></table></div></td></tr><tr><td style="font-weight:bold;vertical-align:top">web2py_version</td><td valign="top">:</td><td><div>2.4.7-stable+timestamp.2013.05.24.17.48.47</div></td></tr></table></div></td></tr><tr><td style="font-weight:bold;vertical-align:top">is_https</td><td valign="top">:</td><td><div>False</div></td></tr><tr><td style="font-weight:bold;vertical-align:top">is_local</td><td valign="top">:</td><td><div>True</div></td></tr><tr><td style="font-weight:bold;vertical-align:top">is_restful</td><td valign="top">:</td><td><div>False</div></td></tr><tr><td style="font-weight:bold;vertical-align:top">now</td><td valign="top">:</td><td><div>datetime.datetime(2013, 6, 11, 21, 38, 9, 853000)</div></td></tr><tr><td style="font-weight:bold;vertical-align:top">post_vars</td><td valign="top">:</td><td><div><table><tr><td style="font-weight:bold;vertical-align:top">search_key</td><td valign="top">:</td><td><div></div></td></tr></table></div></td></tr><tr><td style="font-weight:bold;vertical-align:top">raw_args</td><td valign="top">:</td><td><div>tifa</div></td></tr><tr><td style="font-weight:bold;vertical-align:top">raw_extension</td><td valign="top">:</td><td><div>None</div></td></tr><tr><td style="font-weight:bold;vertical-align:top">url</td><td valign="top">:</td><td><div>/SpeakInQuotes/connections/search/tifa</div></td></tr><tr><td style="font-weight:bold;vertical-align:top">utcnow</td><td valign="top">:</td><td><div>datetime.datetime(2013, 6, 11, 19, 38, 9, 853000)</div></td></tr><tr><td style="font-weight:bold;vertical-align:top">uuid</td><td valign="top">:</td><td><div>SpeakInQuotes/127.0.0.1.2013-06-11.21-38-09.e5bce728-031c-40ac-bd75-29cb419af91d</div></td></tr><tr><td style="font-weight:bold;vertical-align:top">vars</td><td valign="top">:</td><td><div><table><tr><td style="font-weight:bold;vertical-align:top">search_key</td><td valign="top">:</td><td><div></div></td></tr></table></div></td></tr><tr><td style="font-weight:bold;vertical-align:top">wsgi</td><td valign="top">:</td><td><div><table><tr><td style="font-weight:bold;vertical-align:top">environ</td><td valign="top">:</td><td><div><table><tr><td style="font-weight:bold;vertical-align:top">CONTENT_LENGTH</td><td valign="top">:</td><td><div>383</div></td></tr><tr><td style="font-weight:bold;vertical-align:top">CONTENT_TYPE</td><td valign="top">:</td><td><div>multipart/form-data; boundary=----WebKitFormBoundaryEE0APfk9J08OwFtp</div></td></tr><tr><td style="font-weight:bold;vertical-align:top">HTTP_ACCEPT</td><td valign="top">:</td><td><div>text/html,application/xhtml+xml,application/xml;q=0.9,*/*;q=0.8</div></td></tr><tr><td style="font-weight:bold;vertical-align:top">HTTP_ACCEPT_ENCODING</td><td valign="top">:</td><td><div>gzip,deflate,sdch</div></td></tr><tr><td style="font-weight:bold;vertical-align:top">HTTP_ACCEPT_LANGUAGE</td><td valign="top">:</td><td><div>en-US,en;q=0.8</div></td></tr><tr><td style="font-weight:bold;vertical-align:top">HTTP_CACHE_CONTROL</td><td valign="top">:</td><td><div>max-age=0</div></td></tr><tr><td style="font-weight:bold;vertical-align:top">HTTP_CONNECTION</td><td valign="top">:</td><td><div>keep-alive</div></td></tr><tr><td style="font-weight:bold;vertical-align:top">HTTP_CONTENT_LENGTH</td><td valign="top">:</td><td><div>383</div></td></tr><tr><td style="font-weight:bold;vertical-align:top">HTTP_CONTENT_TYPE</td><td valign="top">:</td><td><div>multipart/form-data; boundary=----WebKitFormBoundaryEE0APfk9J08OwFtp</div></td></tr><tr><td style="font-weight:bold;vertical-align:top">HTTP_COOKIE</td><td valign="top">:</td><td><div>session_id_admin=127.0.0.1-d83be33e-83ee-4344-b2fd-11c044f9de6c; session_id_speakinquotes=127.0.0.1-af4a0ad5-6754-44d9-9ca8-6e25140866e5</div></td></tr><tr><td style="font-weight:bold;vertical-align:top">HTTP_HOST</td><td valign="top">:</td><td><div>127.0.0.1:8000</div></td></tr><tr><td style="font-weight:bold;vertical-align:top">HTTP_ORIGIN</td><td valign="top">:</td><td><div>http://127.0.0.1:8000</div></td></tr><tr><td style="font-weight:bold;vertical-align:top">HTTP_REFERER</td><td valign="top">:</td><td><div>http://127.0.0.1:8000/SpeakInQuotes/connections/search/tifa</div></td></tr><tr><td style="font-weight:bold;vertical-align:top">HTTP_USER_AGENT</td><td valign="top">:</td><td><div>Mozilla/5.0 (Windows NT 6.2) AppleWebKit/537.36 (KHTML, like Gecko) Chrome/27.0.1453.110 Safari/537.36</div></td></tr><tr><td style="font-weight:bold;vertical-align:top">PATH_INFO</td><td valign="top">:</td><td><div>/SpeakInQuotes/connections/search/tifa</div></td></tr><tr><td style="font-weight:bold;vertical-align:top">QUERY_STRING</td><td valign="top">:</td><td><div></div></td></tr><tr><td style="font-weight:bold;vertical-align:top">REMOTE_ADDR</td><td valign="top">:</td><td><div>127.0.0.1</div></td></tr><tr><td style="font-weight:bold;vertical-align:top">REMOTE_PORT</td><td valign="top">:</td><td><div>63189</div></td></tr><tr><td style="font-weight:bold;vertical-align:top">REQUEST_METHOD</td><td valign="top">:</td><td><div>POST</div></td></tr><tr><td style="font-weight:bold;vertical-align:top">REQUEST_URI</td><td valign="top">:</td><td><div>/SpeakInQuotes/connections/search/tifa</div></td></tr><tr><td style="font-weight:bold;vertical-align:top">SCRIPT_NAME</td><td valign="top">:</td><td><div></div></td></tr><tr><td style="font-weight:bold;vertical-align:top">SERVER_NAME</td><td valign="top">:</td><td><div>Laptop</div></td></tr><tr><td style="font-weight:bold;vertical-align:top">SERVER_PORT</td><td valign="top">:</td><td><div>8000</div></td></tr><tr><td style="font-weight:bold;vertical-align:top">SERVER_PROTOCOL</td><td valign="top">:</td><td><div>HTTP/1.1</div></td></tr><tr><td style="font-weight:bold;vertical-align:top">SERVER_SOFTWARE</td><td valign="top">:</td><td><div>Rocket 1.2.6</div></td></tr><tr><td style="font-weight:bold;vertical-align:top">WEB2PY_ORIGINAL_URI</td><td valign="top">:</td><td><div>/SpeakInQuotes/connections/search/tifa</div></td></tr><tr><td style="font-weight:bold;vertical-align:top">wsgi.errors</td><td valign="top">:</td><td><div>&lt;open file &#x27;&lt;stderr&gt;&#x27;, mode &#x27;w&#x27; at 0x012C50D0&gt;</div></td></tr><tr><td style="font-weight:bold;vertical-align:top">wsgi.file_wrapper</td><td valign="top">:</td><td><div>&lt;class wsgiref.util.FileWrapper at 0x02833730&gt;</div></td></tr><tr><td style="font-weight:bold;vertical-align:top">wsgi.input</td><td valign="top">:</td><td><div>&lt;open file &#x27;&lt;fdopen&gt;&#x27;, mode &#x27;w+b&#x27; at 0x06F01078&gt;</div></td></tr><tr><td style="font-weight:bold;vertical-align:top">wsgi.multiprocess</td><td valign="top">:</td><td><div>False</div></td></tr><tr><td style="font-weight:bold;vertical-align:top">wsgi.multithread</td><td valign="top">:</td><td><div>True</div></td></tr><tr><td style="font-weight:bold;vertical-align:top">wsgi.run_once</td><td valign="top">:</td><td><div>False</div></td></tr><tr><td style="font-weight:bold;vertical-align:top">wsgi.url_scheme</td><td valign="top">:</td><td><div>http</div></td></tr><tr><td style="font-weight:bold;vertical-align:top">wsgi.version</td><td valign="top">:</td><td><div>1</div></td></tr></table></div></td></tr></table></div></td></tr></table></div>'
tRp58
sS'frames'
p59
(lp60
(dp61
S'file'
p62
S'E:\\projects\\Repos\\speakinquotes\\web2py\\gluon\\restricted.py'
p63
sS'dump'
p64
(dp65
S'environment'
p66
S"{'A': <class 'gluon.html.A'>, 'ANY_OF': <class 'gluon.validators.ANY_OF'>, 'Auth': <class 'gluon.tools.Auth'>, 'B': <class 'gluon.html.B'>, 'BEAUTIFY': <class 'gluon.html.BEAUTIFY'>, 'BODY': <class 'gluon.html.BODY'>, 'BR': <class 'gluon.html.BR'>, 'BUTTON': <class 'gluon.html.BUTTON'>, 'CAT': <class 'gluon.html.CAT'>, 'CENTER': <class 'gluon.html.CENTER'>, ...}"
p67
sS'ccode'
p68
S'<code object <module> at 077CC848, file "E:\\proj...eakInQuotes\\controllers/connections.py", line 14>'
p69
ssS'lnum'
p70
I212
sS'lines'
p71
(dp72
I207
S'    try:'
p73
sI208
S'        if isinstance(code, types.CodeType):'
p74
sI209
S'            ccode = code'
p75
sI210
S'        else:'
p76
sI211
S'            ccode = compile2(code, layer)'
p77
sI212
S'        exec ccode in environment'
p78
sI213
S'    except HTTP:'
p79
sI214
S'        raise'
p80
sI215
S'    except RestrictedError:'
p81
sI216
S'        # do not encapsulate (obfuscate) the original RestrictedError'
p82
ssS'call'
p83
S"(code='# -*- coding: utf-8 -*-\\n# this file is released ..._page)\\n\\n\\nresponse._vars=response._caller(search)\\n', environment={'A': <class 'gluon.html.A'>, 'ANY_OF': <class 'gluon.validators.ANY_OF'>, 'Auth': <class 'gluon.tools.Auth'>, 'B': <class 'gluon.html.B'>, 'BEAUTIFY': <class 'gluon.html.BEAUTIFY'>, 'BODY': <class 'gluon.html.BODY'>, 'BR': <class 'gluon.html.BR'>, 'BUTTON': <class 'gluon.html.BUTTON'>, 'CAT': <class 'gluon.html.CAT'>, 'CENTER': <class 'gluon.html.CENTER'>, ...}, layer=r'E:\\projects\\Repos\\speakinquotes\\web2py\\applications\\SpeakInQuotes\\controllers/connections.py')"
p84
sS'func'
p85
S'restricted'
p86
sa(dp87
g62
S'E:\\projects\\Repos\\speakinquotes\\web2py\\applications\\SpeakInQuotes\\controllers\\connections.py'
p88
sg64
(dp89
sg70
I64
sg71
(dp90
I53
S'@auth.requires_login()'
p91
sI54
S'def List_Following():'
p92
sI55
S'    if len(request.args)>1:'
p93
sI56
S'\t\tpage=int(request.args[1])'
p94
sI57
S'    else: page=0'
p95
sI58
S'    items_per_page=NUM_FRIENDS_INPAGE'
p96
sI59
S'    limitby=(page*items_per_page,(page+1)*items_per_page+1)'
p97
sI60
S'    rows = db((db.link.origin==me)).select(limitby=limitby, orderby=~db.link.requested_on).as_dict()'
p98
sI61
S'    return dict(Connections=rows,page=page,items_per_page=items_per_page)'
p99
sI62
S''
ssg83
S'()'
p100
sg85
S'<module>'
p101
sa(dp102
g62
S'E:\\projects\\Repos\\speakinquotes\\web2py\\gluon\\globals.py'
p103
sg64
(dp104
S'self'
p105
S'undefined'
p106
sS'f'
S'<function search>'
p107
ssg70
I194
sg71
(dp108
I192
S"        self.delimiters = ('{{', '}}')"
p109
sI193
S'        self._vars = None'
p110
sI194
S'        self._caller = lambda f: f()'
p111
sI195
S'        self._view_environment = None'
p112
sI196
S'        self._custom_commit = None'
p113
sI197
S'        self._custom_rollback = None'
p114
sI198
S''
sI189
S'        self.menu = []             # used by the default view layout'
p115
sI190
S'        self.files = []            # used by web2py_ajax.html'
p116
sI191
S'        self.generic_patterns = []  # patterns to allow generic views'
p117
ssg83
S'(f=<function search>)'
p118
sg85
S'<lambda>'
p119
sa(dp120
g62
S'E:\\projects\\Repos\\speakinquotes\\web2py\\gluon\\tools.py'
p121
sg64
(dp122
S'action'
p123
S'<function search>'
p124
sS'a'
S'()'
p125
sS'b'
g45
ssg70
I3021
sg71
(dp126
I3016
S'                    flag = condition'
p127
sI3017
S'                if not flag:'
p128
sI3018
S'                    current.session.flash = self.messages.access_denied'
p129
sI3019
S'                    return call_or_redirect('
p130
sI3020
S'                        self.settings.on_failed_authorization)'
p131
sI3021
S'                return action(*a, **b)'
p132
sI3022
S'            f.__doc__ = action.__doc__'
p133
sI3023
S'            f.__name__ = action.__name__'
p134
sI3024
S'            f.__dict__.update(action.__dict__)'
p135
sI3025
S'            return f'
p136
ssg83
S'(*a=(), **b={})'
p137
sg85
S'f'
sa(dp138
g62
S'E:\\projects\\Repos\\speakinquotes\\web2py\\applications\\SpeakInQuotes\\controllers\\connections.py'
p139
sg64
(dp140
S'auth.requires_login'
p141
S'<bound method Auth.requires_login of <gluon.tools.Auth object>>'
p142
sS'global auth'
p143
S'<gluon.tools.Auth object>'
p144
ssg70
I30
sg71
(dp145
I32
S"\t\tredirect(URL('connections','search',args=user_search_box.vars.search_key))"
p146
sI33
S''
sI34
S'\tif len(request.args)>0:'
p147
sI25
S'@auth.requires_login()'
p148
sI26
S'def search():'
p149
sI27
S"\tif len(request.args)==0: redirect(URL('connections','index'))"
p150
sI28
S'\tresponse.title=T("Search Users")'
p151
sI29
S'\tresponse.subtitle=T("find your friends on SpeakInQuotes")'
p152
sI30
S'\tuser_search_box = get_user_search_form()'
p153
sI31
S'\tif user_search_box.process().accepted:'
p154
ssg83
S'()'
p155
sg85
S'search'
p156
sa(dp157
g62
S'E:\\projects\\Repos\\speakinquotes\\web2py\\applications\\SpeakInQuotes\\models\\model.py'
p158
sg64
(dp159
S'global crud'
p160
S'<gluon.tools.Crud object>'
p161
sS'builtinTrue'
p162
S'True'
p163
sS'label'
p164
g106
sS'global Field'
p165
S"<class 'gluon.dal.Field'>"
p166
sS'submit_button'
p167
g106
sS'notnull'
p168
g106
sS'crud.create'
p169
S'<bound method Crud.create of <gluon.tools.Crud object>>'
p170
sS'user_search_form'
p171
g106
ssg70
I224
sg71
(dp172
I224
S'\tuser_search_form=crud.create(Field(\'search_key\',notnull=True,label="Please Enter Username / Email"),submit_button="Search")'
p173
sI225
S'\treturn user_search_form'
p174
sI216
S"  Field('not_story',db.quotes,notnull=True),"
p175
sI217
S"  Field('posted_on', 'datetime', readable=False, writable=False),"
p176
sI218
S"  Field('seen','boolean', required=True, default=False, readable=False, writable=False),"
p177
sI219
S'  )'
p178
sI220
S''
sI221
S'#______________________________________________________________________________________________________________'
p179
sI222
S''
sI223
S'def get_user_search_form():'
p180
ssg83
S'()'
p181
sg85
S'get_user_search_form'
p182
sa(dp183
g62
S'E:\\projects\\Repos\\speakinquotes\\web2py\\gluon\\tools.py'
p184
sg64
(dp185
S'attributes'
p186
S"{'submit_button': 'Search'}"
p187
ssg70
I3726
sg71
(dp188
I3721
S'            onaccept=onaccept,'
p189
sI3722
S'            log=log,'
p190
sI3723
S'            message=message,'
p191
sI3724
S'            deletable=False,'
p192
sI3725
S'            formname=formname,'
p193
sI3726
S'            **attributes'
p194
sI3727
S'            )'
p195
sI3728
S''
sI3729
S'    def read(self, table, record):'
p196
sI3730
S'        if not (isinstance(table, self.db.Table) or table in self.db.tables) \\'
p197
ssg83
S"(self=<gluon.tools.Crud object>, table=<gluon.dal.Field object>, next=None, onvalidation=<Storage {}>, onaccept=<Storage {}>, log='Record %(id)s created', message='Record Created', formname=<function <lambda>>, **attributes={'submit_button': 'Search'})"
p198
sg85
S'create'
p199
sa(dp200
g62
S'E:\\projects\\Repos\\speakinquotes\\web2py\\gluon\\tools.py'
p201
sg64
(dp202
S'self.db.Table'
p203
S"<class 'gluon.dal.Table'>"
p204
sS'builtinstr'
p205
S"<type 'str'>"
p206
sS'self.db.tables'
p207
S"['auth_user', 'auth_group', 'auth_membership', '...ent', 'quotes_favorite', 'link', 'notifications']"
p208
sS'self'
p209
S'<gluon.tools.Crud object>'
p210
sS').isdigit'
p211
g106
sS'builtinisinstance'
p212
S'<built-in function isinstance>'
p213
sS'table'
p214
S'<gluon.dal.Field object>'
p215
sS'self.db'
p216
S'<DAL uri="sqlite://storage.sqlite">'
p217
sS'record'
p218
S'None'
p219
ssg70
I3592
sg71
(dp220
I3587
S'        method: Crud.update(table, record, [next=DEFAULT'
p221
sI3588
S'            [, onvalidation=DEFAULT [, onaccept=DEFAULT [, log=DEFAULT'
p222
sI3589
S'            [, message=DEFAULT[, deletable=DEFAULT]]]]]])'
p223
sI3590
S''
sI3591
S'        """'
p224
sI3592
S'        if not (isinstance(table, self.db.Table) or table in self.db.tables) \\'
p225
sI3593
S'                or (isinstance(record, str) and not str(record).isdigit()):'
p226
sI3594
S'            raise HTTP(404)'
p227
sI3595
S'        if not isinstance(table, self.db.Table):'
p228
sI3596
S'            table = self.db[table]'
p229
ssg83
S"(self=<gluon.tools.Crud object>, table=<gluon.dal.Field object>, record=None, next=None, onvalidation=<Storage {}>, onaccept=<Storage {}>, ondelete=<function <lambda>>, log='Record %(id)s created', message='Record Created', deletable=False, formname=<function <lambda>>, **attributes={'submit_button': 'Search'})"
p230
sg85
S'update'
p231
sa(dp232
g62
S'E:\\projects\\Repos\\speakinquotes\\web2py\\gluon\\dal.py'
p233
sg64
(dp234
S'self'
p235
S'<gluon.dal.Field object>'
p236
sS'db._adapter'
p237
g106
sS'db'
p238
S'None'
p239
sS'global Query'
p240
S"<class 'gluon.dal.Query'>"
p241
sS'value'
p242
S"'auth_user'"
p243
ssg70
I9015
sg71
(dp244
I9010
S'        db = self.db'
p245
sI9011
S'        return Expression(db,db._adapter.MOD,self,other,self.type)'
p246
sI9012
S''
sI9013
S'    def __eq__(self, value):'
p247
sI9014
S'        db = self.db'
p248
sI9015
S'        return Query(db, db._adapter.EQ, self, value)'
p249
sI9016
S''
sI9017
S'    def __ne__(self, value):'
p250
sI9018
S'        db = self.db'
p251
sI9019
S'        return Query(db, db._adapter.NE, self, value)'
p252
ssg83
S"(self=<gluon.dal.Field object>, value='auth_user')"
p253
sg85
S'__eq__'
p254
sasS'pyver'
p255
S'Python 2.7.2: C:\\Python27\\python.exe (prefix: C:\\Python27)'
p256
sS'session'
p257
g57
(S's\x9d\n\x00\x00<div><table><tr><td style="font-weight:bold;vertical-align:top">auth</td><td valign="top">:</td><td><div><table><tr><td style="font-weight:bold;vertical-align:top">expiration</td><td valign="top">:</td><td><div>3600</div></td></tr><tr><td style="font-weight:bold;vertical-align:top">hmac_key</td><td valign="top">:</td><td><div>869e7317-3d19-4c46-8497-a8bb8e3a75a5</div></td></tr><tr><td style="font-weight:bold;vertical-align:top">last_visit</td><td valign="top">:</td><td><div>datetime.datetime(2013, 6, 11, 21, 38, 9, 853000)</div></td></tr><tr><td style="font-weight:bold;vertical-align:top">remember</td><td valign="top">:</td><td><div>False</div></td></tr><tr><td style="font-weight:bold;vertical-align:top">user</td><td valign="top">:</td><td><div><table><tr><td style="font-weight:bold;vertical-align:top">dob</td><td valign="top">:</td><td><div>None</div></td></tr><tr><td style="font-weight:bold;vertical-align:top">email</td><td valign="top">:</td><td><div>m@m.com</div></td></tr><tr><td style="font-weight:bold;vertical-align:top">first_name</td><td valign="top">:</td><td><div>Moustafa</div></td></tr><tr><td style="font-weight:bold;vertical-align:top">gender</td><td valign="top">:</td><td><div>Male</div></td></tr><tr><td style="font-weight:bold;vertical-align:top">id</td><td valign="top">:</td><td><div>2L</div></td></tr><tr><td style="font-weight:bold;vertical-align:top">last_name</td><td valign="top">:</td><td><div>Mahmoud</div></td></tr><tr><td style="font-weight:bold;vertical-align:top">profile_picture</td><td valign="top">:</td><td><div>auth_user.profile_picture.80c21984478c1596.61696b69646f3378335f726561736f6e61626c795f736d616c6c2e6a7067.jpg</div></td></tr><tr><td style="font-weight:bold;vertical-align:top">registration_id</td><td valign="top">:</td><td><div></div></td></tr><tr><td style="font-weight:bold;vertical-align:top">registration_key</td><td valign="top">:</td><td><div></div></td></tr><tr><td style="font-weight:bold;vertical-align:top">reset_password_key</td><td valign="top">:</td><td><div></div></td></tr><tr><td style="font-weight:bold;vertical-align:top">username</td><td valign="top">:</td><td><div>toto</div></td></tr></table></div></td></tr><tr><td style="font-weight:bold;vertical-align:top">user_groups</td><td valign="top">:</td><td><div><table></table></div></td></tr></table></div></td></tr><tr><td style="font-weight:bold;vertical-align:top">curr_category</td><td valign="top">:</td><td><div>1L</div></td></tr><tr><td style="font-weight:bold;vertical-align:top">curr_subcategory</td><td valign="top">:</td><td><div>1L</div></td></tr><tr><td style="font-weight:bold;vertical-align:top">flash</td><td valign="top">:</td><td><div>None</div></td></tr></table></div>'
tRp258
sS'etype'
p259
S"<type 'exceptions.AttributeError'>"
p260
sS'date'
p261
S'Tue Jun 11 21:38:09 2013'
p262
sS'response'
p263
g57
(S's9\x1c\x00\x00<div><table><tr><td style="font-weight:bold;vertical-align:top">body</td><td valign="top">:</td><td><div>&lt;cStringIO.StringO object at 0x0729E4C0&gt;</div></td></tr><tr><td style="font-weight:bold;vertical-align:top">cookies</td><td valign="top">:</td><td><div><table><tr><td style="font-weight:bold;vertical-align:top">session_id_speakinquotes</td><td valign="top">:</td><td><div>127.0.0.1-af4a0ad5-6754-44d9-9ca8-6e25140866e5<table><tr><td style="font-weight:bold;vertical-align:top">comment</td><td valign="top">:</td><td><div></div></td></tr><tr><td style="font-weight:bold;vertical-align:top">domain</td><td valign="top">:</td><td><div></div></td></tr><tr><td style="font-weight:bold;vertical-align:top">expires</td><td valign="top">:</td><td><div></div></td></tr><tr><td style="font-weight:bold;vertical-align:top">httponly</td><td valign="top">:</td><td><div></div></td></tr><tr><td style="font-weight:bold;vertical-align:top">max-age</td><td valign="top">:</td><td><div></div></td></tr><tr><td style="font-weight:bold;vertical-align:top">path</td><td valign="top">:</td><td><div>/</div></td></tr><tr><td style="font-weight:bold;vertical-align:top">secure</td><td valign="top">:</td><td><div></div></td></tr><tr><td style="font-weight:bold;vertical-align:top">version</td><td valign="top">:</td><td><div></div></td></tr></table></div></td></tr></table></div></td></tr><tr><td style="font-weight:bold;vertical-align:top">delimiters</td><td valign="top">:</td><td><div><table><tr><td><div>{{</div></td></tr><tr><td><div>}}</div></td></tr></table></div></td></tr><tr><td style="font-weight:bold;vertical-align:top">files</td><td valign="top">:</td><td><div><table></table></div></td></tr><tr><td style="font-weight:bold;vertical-align:top">flash</td><td valign="top">:</td><td><div>Comment Posted</div></td></tr><tr><td style="font-weight:bold;vertical-align:top">generic_patterns</td><td valign="top">:</td><td><div><table><tr><td><div>*</div></td></tr></table></div></td></tr><tr><td style="font-weight:bold;vertical-align:top">google_analytics_id</td><td valign="top">:</td><td><div>None</div></td></tr><tr><td style="font-weight:bold;vertical-align:top">headers</td><td valign="top">:</td><td><div><table><tr><td style="font-weight:bold;vertical-align:top">X-Powered-By</td><td valign="top">:</td><td><div>web2py</div></td></tr></table></div></td></tr><tr><td style="font-weight:bold;vertical-align:top">logo</td><td valign="top">:</td><td><div><a class="brand" href="/SpeakInQuotes/default/index"><b>SpeakInQuotes</b></a></div></td></tr><tr><td style="font-weight:bold;vertical-align:top">menu</td><td valign="top">:</td><td><div><table><tr><td><div><table><tr><td><div><img src="/SpeakInQuotes/static/images/home.png" style="width:20px;" title="Home" /></div></td></tr><tr><td><div>False</div></td></tr><tr><td><div>/SpeakInQuotes/default/index</div></td></tr></table></div></td></tr><tr><td><div><table><tr><td><div><img src="/SpeakInQuotes/static/images/profile.png" style="width:20px;" title="Profile" /></div></td></tr><tr><td><div>False</div></td></tr><tr><td><div>/SpeakInQuotes/profile/index/2</div></td></tr></table></div></td></tr><tr><td><div><table><tr><td><div><img src="/SpeakInQuotes/static/images/history.png" style="width:20px;" title="Famous &amp; Historical Quotes" /></div></td></tr><tr><td><div>False</div></td></tr><tr><td><div>/SpeakInQuotes/quotes/famous</div></td></tr></table></div></td></tr><tr><td><div><table><tr><td><div><img src="/SpeakInQuotes/static/images/user-quotes.png" style="width:20px;" title="User Quotes" /></div></td></tr><tr><td><div>False</div></td></tr><tr><td><div>/SpeakInQuotes/quotes/user</div></td></tr></table></div></td></tr><tr><td><div><table><tr><td><div><img src="/SpeakInQuotes/static/images/my-quotes.png" style="width:20px;" title="My Quotes" /></div></td></tr><tr><td><div>False</div></td></tr><tr><td><div>/SpeakInQuotes/myquotes/index</div></td></tr></table></div></td></tr><tr><td><div><table><tr><td><div><img src="/SpeakInQuotes/static/images/user-connections.png" style="width:20px;" title="My Connections" /></div></td></tr><tr><td><div>False</div></td></tr><tr><td><div>/SpeakInQuotes/connections/index</div></td></tr></table></div></td></tr></table></div></td></tr><tr><td style="font-weight:bold;vertical-align:top">meta</td><td valign="top">:</td><td><div><table><tr><td style="font-weight:bold;vertical-align:top">author</td><td valign="top">:</td><td><div>Moustafa Mahmoud &lt;Moustafa.Mahmoud.Fathy@outlook.com&gt;</div></td></tr><tr><td style="font-weight:bold;vertical-align:top">description</td><td valign="top">:</td><td><div>SpeakInQuotes allows you to express your feelings using quotes and connects you with other people who love quotes like you :)</div></td></tr></table></div></td></tr><tr><td style="font-weight:bold;vertical-align:top">models_to_run</td><td valign="top">:</td><td><div><table><tr><td><div>^\\w+\\.py$</div></td></tr><tr><td><div>^connections/\\w+\\.py$</div></td></tr><tr><td><div>^connections/search/\\w+\\.py$</div></td></tr></table></div></td></tr><tr><td style="font-weight:bold;vertical-align:top">postprocessing</td><td valign="top">:</td><td><div><table></table></div></td></tr><tr><td style="font-weight:bold;vertical-align:top">session_cookie_expires</td><td valign="top">:</td><td><div>None</div></td></tr><tr><td style="font-weight:bold;vertical-align:top">session_data_name</td><td valign="top">:</td><td><div>session_data_speakinquotes</div></td></tr><tr><td style="font-weight:bold;vertical-align:top">session_file</td><td valign="top">:</td><td><div>&lt;open file &#x27;E:\\projects\\Repos\\speakinquotes\\web2py\\applications\\SpeakInQuotes\\sessions\\127.0.0.1-af4a0ad5-6754-44d9-9ca8-6e25140866e5&#x27;, mode &#x27;rb+&#x27; at 0x06F01AC8&gt;</div></td></tr><tr><td style="font-weight:bold;vertical-align:top">session_filename</td><td valign="top">:</td><td><div>E:\\projects\\Repos\\speakinquotes\\web2py\\applications\\SpeakInQuotes\\sessions\\127.0.0.1-af4a0ad5-6754-44d9-9ca8-6e25140866e5</div></td></tr><tr><td style="font-weight:bold;vertical-align:top">session_id</td><td valign="top">:</td><td><div>127.0.0.1-af4a0ad5-6754-44d9-9ca8-6e25140866e5</div></td></tr><tr><td style="font-weight:bold;vertical-align:top">session_id_name</td><td valign="top">:</td><td><div>session_id_speakinquotes</div></td></tr><tr><td style="font-weight:bold;vertical-align:top">session_locked</td><td valign="top">:</td><td><div>True</div></td></tr><tr><td style="font-weight:bold;vertical-align:top">session_new</td><td valign="top">:</td><td><div>False</div></td></tr><tr><td style="font-weight:bold;vertical-align:top">session_storage_type</td><td valign="top">:</td><td><div>file</div></td></tr><tr><td style="font-weight:bold;vertical-align:top">status</td><td valign="top">:</td><td><div>200</div></td></tr><tr><td style="font-weight:bold;vertical-align:top">subtitle</td><td valign="top">:</td><td><div>find your friends on SpeakInQuotes</div></td></tr><tr><td style="font-weight:bold;vertical-align:top">title</td><td valign="top">:</td><td><div>Search Users</div></td></tr><tr><td style="font-weight:bold;vertical-align:top">view</td><td valign="top">:</td><td><div>connections/search.html</div></td></tr></table></div>'
tRp264
sS'locals'
p265
(dp266
S'self'
p267
S'<gluon.dal.Field object>'
p268
sS'db'
p269
S'None'
p270
sS'value'
p271
S"'auth_user'"
p272
sssS'traceback'
p273
S'Traceback (most recent call last):\n  File "E:\\projects\\Repos\\speakinquotes\\web2py\\gluon\\restricted.py", line 212, in restricted\n    exec ccode in environment\n  File "E:\\projects\\Repos\\speakinquotes\\web2py\\applications\\SpeakInQuotes\\controllers/connections.py", line 64, in <module>\n  File "E:\\projects\\Repos\\speakinquotes\\web2py\\gluon\\globals.py", line 194, in <lambda>\n    self._caller = lambda f: f()\n  File "E:\\projects\\Repos\\speakinquotes\\web2py\\gluon\\tools.py", line 3021, in f\n    return action(*a, **b)\n  File "E:\\projects\\Repos\\speakinquotes\\web2py\\applications\\SpeakInQuotes\\controllers/connections.py", line 30, in search\n    user_search_box = get_user_search_form()\n  File "E:\\projects\\Repos\\speakinquotes\\web2py\\applications\\SpeakInQuotes\\models\\model.py", line 224, in get_user_search_form\n    user_search_form=crud.create(Field(\'search_key\',notnull=True,label="Please Enter Username / Email"),submit_button="Search")\n  File "E:\\projects\\Repos\\speakinquotes\\web2py\\gluon\\tools.py", line 3726, in create\n    **attributes\n  File "E:\\projects\\Repos\\speakinquotes\\web2py\\gluon\\tools.py", line 3592, in update\n    if not (isinstance(table, self.db.Table) or table in self.db.tables) \\\n  File "E:\\projects\\Repos\\speakinquotes\\web2py\\gluon\\dal.py", line 9015, in __eq__\n    return Query(db, db._adapter.EQ, self, value)\nAttributeError: \'NoneType\' object has no attribute \'_adapter\'\n'
p274
s.